(lp0
(lp1
(I1
S'minor'
p2
I0
tp3
a(I1
g2
I0
tp4
a(I1
g2
I0
tp5
a(I2
S'other'
p6
I0
tp7
a(I1
g6
I0
tp8
a(I7
g6
I0
tp9
a(I6
g6
I0
tp10
a(I5
g6
I0
tp11
a(I5
S'major'
p12
I2
tp13
a(I7
S'diminished'
p14
I1
tp15
a(I7
g14
I1
tp16
a(I7
g2
I1
tp17
a(I7
g14
I1
tp18
a(I4
g6
I0
tp19
a(I7
g14
I0
tp20
a(I7
g2
I0
tp21
a(I5
g12
I1
tp22
a(I7
g14
I0
tp23
a(I3
S'augmented'
p24
I2
tp25
a(I5
g12
I1
tp26
a(I3
g12
I0
tp27
a(I3
g6
I0
tp28
a(I3
g6
I0
tp29
a(I1
g2
I1
tp30
a(I3
g6
I0
tp31
a(I1
g2
I1
tp32
a(I1
g2
I1
tp33
a(I4
g2
I0
tp34
a(I4
g2
I0
tp35
a(I2
g14
I1
tp36
a(I4
g2
I0
tp37
a(I1
g6
I2
tp38
a(I1
g6
I2
tp39
a(I5
g12
I0
tp40
a(I5
g6
I0
tp41
a(I4
g6
I2
tp42
a(I1
g2
I0
tp43
a(I2
g6
I3
tp44
a(I1
g6
I0
tp45
a(I1
g2
I1
tp46
a(I1
g6
I2
tp47
a(I1
g6
I0
tp48
a(I1
g6
I0
tp49
a(I3
g6
I0
tp50
a(I6
g14
I1
tp51
a(I6
g14
I1
tp52
a(I6
g14
I1
tp53
a(I6
g14
I1
tp54
a(I1
g2
I0
tp55
a(I6
g14
I1
tp56
a(I1
g2
I0
tp57
a(I4
g6
I2
tp58
a(I3
g6
I0
tp59
a(I3
g6
I2
tp60
a(I3
g6
I2
tp61
a(I7
g12
I0
tp62
a(I1
g6
I3
tp63
a(I1
g6
I3
tp64
a(I7
g12
I0
tp65
a(I7
g6
I0
tp66
a(I1
g2
I0
tp67
a(I1
g6
I0
tp68
a(I4
g6
I2
tp69
a(I6
g12
I1
tp70
a(I6
g12
I1
tp71
a(I1
g6
I0
tp72
a(I1
g6
I0
tp73
a(I6
g12
I1
tp74
a(I2
g6
I0
tp75
a(I5
g6
I2
tp76
a(I2
g2
I0
tp77
a(I3
g6
I3
tp78
a(I3
g6
I3
tp79
a(I2
g6
I0
tp80
a(I2
g6
I0
tp81
a(I7
g12
I1
tp82
a(I6
g6
I0
tp83
a(I6
g6
I2
tp84
a(I2
g6
I0
tp85
a(I3
g12
I0
tp86
a(I5
g6
I0
tp87
a(I4
g6
I0
tp88
a(I6
g6
I0
tp89
a(I5
g2
I0
tp90
a(I5
g6
I0
tp91
a(I5
g6
I0
tp92
a(I3
g12
I1
tp93
a(I5
g6
I0
tp94
a(I3
g12
I1
tp95
a(I5
g2
I0
tp96
a(I5
g6
I0
tp97
a(I6
g12
I0
tp98
a(I6
g6
I0
tp99
a(I6
g6
I0
tp100
a(I6
g6
I0
tp101
a(I6
g6
I0
tp102
a(I6
g6
I0
tp103
a(I6
g6
I0
tp104
a(I6
g6
I0
tp105
a(I6
g2
I0
tp106
a(I6
g6
I0
tp107
a(I6
g6
I0
tp108
a(I4
g12
I1
tp109
a(I6
g6
I0
tp110
a(I4
g12
I1
tp111
a(I6
g2
I0
tp112
a(I6
g6
I0
tp113
a(I7
g12
I0
tp114
a(I7
g6
I0
tp115
a(I7
g6
I0
tp116
a(I7
g6
I0
tp117
a(I7
g6
I0
tp118
a(I7
g6
I0
tp119
a(I7
g6
I0
tp120
a(I7
g6
I0
tp121
a(I6
g6
I0
tp122
a(I7
g6
I3
tp123
a(I2
g6
I2
tp124
a(I4
g2
I1
tp125
a(I3
g12
I1
tp126
a(I5
g2
I0
tp127
a(I3
g12
I1
tp128
a(I1
g6
I2
tp129
a(I1
g6
I0
tp130
a(I1
g6
I0
tp131
a(I6
g6
I0
tp132
a(I6
g6
I0
tp133
a(I4
g2
I1
tp134
a(I2
g6
I2
tp135
a(I2
g6
I0
tp136
a(I2
g6
I0
tp137
a(I7
g6
I0
tp138
a(I7
g6
I0
tp139
a(I5
g2
I1
tp140
a(I7
g6
I0
tp141
a(I5
g6
I0
tp142
a(I4
g6
I0
tp143
a(I3
g6
I0
tp144
a(I1
g2
I0
tp145
a(I1
g6
I0
tp146
a(I1
g6
I0
tp147
a(I6
g2
I1
tp148
a(I2
g2
I0
tp149
a(I2
g6
I0
tp150
a(I2
g6
I0
tp151
a(I7
g12
I1
tp152
a(I3
g12
I0
tp153
a(I3
g6
I0
tp154
a(I6
g6
I2
tp155
a(I3
g6
I0
tp156
a(I4
g2
I0
tp157
a(I5
g6
I3
tp158
a(I4
g2
I0
tp159
a(I7
g6
I2
tp160
a(I4
g2
I0
tp161
a(I5
g6
I3
tp162
a(I4
g6
I0
tp163
a(I4
g6
I0
tp164
a(I5
g6
I2
tp165
a(I2
g2
I0
tp166
a(I3
g6
I3
tp167
a(I2
g6
I0
tp168
a(I2
g6
I0
tp169
a(I7
g12
I1
tp170
a(I2
g2
I0
tp171
a(I2
g6
I0
tp172
a(I3
g12
I0
tp173
a(I3
g6
I0
tp174
a(I3
g6
I0
tp175
a(I3
g6
I0
tp176
a(I6
g12
I0
tp177
a(I6
g6
I0
tp178
a(I6
g6
I0
tp179
a(I4
g2
I1
tp180
a(I7
g6
I0
tp181
a(I7
g6
I0
tp182
a(I3
g6
I2
tp183
a(I7
g6
I0
tp184
a(I3
g6
I0
tp185
a(I3
g6
I0
tp186
a(I6
g6
I0
tp187
a(I5
g6
I0
tp188
a(I4
g6
I0
tp189
a(I3
g6
I0
tp190
a(I2
g2
I1
tp191
a(I2
g6
I0
tp192
a(I2
g6
I2
tp193
a(I7
g12
I0
tp194
a(I2
g2
I1
tp195
a(I7
g12
I0
tp196
a(I2
g6
I0
tp197
a(I2
g2
I1
tp198
a(I7
g6
I0
tp199
a(I7
g12
I0
tp200
a(I7
g6
I0
tp201
a(I3
g2
I2
tp202
a(I5
g6
I0
tp203
a(I3
g6
I0
tp204
a(I6
g6
I0
tp205
a(I7
g6
I0
tp206
a(I5
g6
I0
tp207
a(I7
g6
I0
tp208
a(I3
g6
I0
tp209
a(I5
g6
I0
tp210
a(I7
g6
I0
tp211
a(I3
g2
I2
tp212
a(I5
g12
I1
tp213
a(I7
g6
I0
tp214
a(I6
g6
I0
tp215
a(I4
g6
I0
tp216
a(I6
g6
I0
tp217
a(I7
g6
I0
tp218
a(I4
g6
I0
tp219
a(I7
g6
I0
tp220
a(I2
g6
I0
tp221
a(I4
g6
I0
tp222
a(I7
g6
I0
tp223
a(I7
g6
I0
tp224
a(I6
g2
I4
tp225
a(I5
g12
I1
tp226
a(I7
g6
I0
tp227
a(I6
g6
I0
tp228
a(I4
g12
I1
tp229
a(I6
g6
I0
tp230
a(I7
g12
I0
tp231
a(I7
g12
I0
tp232
a(I2
g2
I3
tp233
a(I7
g6
I0
tp234
a(I6
g6
I0
tp235
a(I5
g2
I0
tp236
a(I5
g6
I0
tp237
a(I5
g6
I0
tp238
a(I3
g12
I1
tp239
a(I5
g2
I0
tp240
a(I3
g12
I1
tp241
a(I5
g6
I0
tp242
a(I5
g2
I0
tp243
a(I3
g12
I1
tp244
a(I5
g6
I0
tp245
a(I5
g2
I0
tp246
a(I3
g12
I1
tp247
a(I5
g6
I0
tp248
a(I5
g2
I0
tp249
a(I3
g12
I1
tp250
a(I5
g6
I0
tp251
a(I6
g12
I0
tp252
a(I6
g6
I0
tp253
a(I2
g6
I2
tp254
a(I6
g6
I0
tp255
a(I6
g12
I0
tp256
a(I6
g6
I0
tp257
a(I6
g6
I0
tp258
a(I6
g12
I0
tp259
a(I6
g6
I0
tp260
a(I6
g6
I0
tp261
a(I6
g12
I0
tp262
a(I6
g6
I0
tp263
a(I6
g6
I0
tp264
a(I6
g6
I0
tp265
a(I3
g12
I0
tp266
a(I6
g6
I0
tp267
a(I5
g2
I4
tp268
a(I4
g6
I1
tp269
a(I3
g12
I2
tp270
a(I7
g12
I0
tp271
a(I3
g6
I0
tp272
a(I3
g6
I0
tp273
a(I4
g6
I0
tp274
a(I5
g6
I0
tp275
a(I4
g6
I0
tp276
a(I3
g6
I0
tp277
a(I2
g6
I0
tp278
a(I1
g2
I0
tp279
a(I1
g2
I0
tp280
a(I1
g2
I0
tp281
a(I2
g6
I0
tp282
a(I1
g6
I0
tp283
a(I7
g6
I0
tp284
a(I6
g6
I0
tp285
a(I5
g6
I0
tp286
a(I5
g12
I2
tp287
a(I7
g14
I1
tp288
a(I7
g14
I1
tp289
a(I7
g2
I1
tp290
a(I7
g14
I1
tp291
a(I4
g6
I0
tp292
a(I7
g14
I0
tp293
a(I7
g2
I0
tp294
a(I5
g12
I1
tp295
a(I7
g14
I0
tp296
a(I3
g24
I2
tp297
a(I5
g12
I1
tp298
a(I3
g12
I0
tp299
a(I3
g6
I0
tp300
a(I3
g6
I0
tp301
a(I1
g2
I1
tp302
a(I3
g6
I0
tp303
a(I1
g2
I1
tp304
a(I1
g2
I1
tp305
a(I4
g2
I0
tp306
a(I4
g2
I0
tp307
a(I4
g6
I0
tp308
a(I2
g14
I1
tp309
a(I4
g2
I0
tp310
a(I1
g6
I2
tp311
a(I1
g6
I2
tp312
a(I5
g12
I0
tp313
a(I5
g6
I0
tp314
a(I4
g6
I2
tp315
a(I1
g2
I0
tp316
a(I2
g6
I3
tp317
a(I1
g6
I0
tp318
a(I2
g6
I3
tp319
a(I1
g2
I1
tp320
a(I1
g6
I2
tp321
a(I1
g6
I0
tp322
a(I5
g6
I0
tp323
a(I3
g6
I0
tp324
a(I1
g2
I0
tp325
a(I1
g2
I0
tp326
a(I1
g2
I0
tp327
a(I6
g12
I1
tp328
a(I1
g2
I0
tp329
a(I4
g6
I2
tp330
a(I1
g6
I0
tp331
a(I6
g12
I1
tp332
a(I6
g12
I1
tp333
a(I6
g12
I1
tp334
a(I4
g2
I2
tp335
a(I6
g6
I4
tp336
a(I5
g14
I1
tp337
a(I1
g6
I3
tp338
a(I5
g14
I1
tp339
a(I6
g12
I0
tp340
a(I1
g6
I0
tp341
a(I1
g6
I0
tp342
a(I6
g12
I0
tp343
a(I6
g12
I0
tp344
a(I6
g24
I0
tp345
a(I4
g2
I1
tp346
a(I6
g12
I0
tp347
a(I6
g6
I0
tp348
a(I4
g2
I1
tp349
a(I4
g2
I1
tp350
a(I4
g2
I1
tp351
a(I2
g12
I2
tp352
a(I4
g6
I4
tp353
a(I3
g14
I1
tp354
a(I6
g6
I3
tp355
a(I3
g14
I1
tp356
a(I4
g2
I0
tp357
a(I1
g6
I0
tp358
a(I6
g6
I0
tp359
a(I3
g6
I0
tp360
a(I4
g6
I0
tp361
a(I7
g6
I0
tp362
a(I3
g6
I2
tp363
a(I7
g12
I0
tp364
a(I1
g6
I3
tp365
a(I7
g12
I0
tp366
a(I7
g6
I0
tp367
a(I7
g6
I0
tp368
a(I7
g6
I0
tp369
a(I4
g6
I3
tp370
a(I3
g12
I0
tp371
a(I7
g6
I0
tp372
a(I5
g6
I0
tp373
a(I2
g6
I0
tp374
a(I3
g6
I0
tp375
a(I6
g6
I0
tp376
a(I2
g6
I2
tp377
a(I6
g12
I0
tp378
a(I7
g6
I3
tp379
a(I6
g12
I0
tp380
a(I6
g6
I0
tp381
a(I6
g6
I0
tp382
a(I6
g6
I0
tp383
a(I3
g6
I3
tp384
a(I2
g2
I0
tp385
a(I6
g6
I0
tp386
a(I4
g6
I0
tp387
a(I1
g6
I0
tp388
a(I2
g6
I0
tp389
a(I5
g6
I0
tp390
a(I1
g6
I2
tp391
a(I5
g12
I0
tp392
a(I6
g6
I3
tp393
a(I5
g12
I0
tp394
a(I5
g6
I0
tp395
a(I5
g6
I0
tp396
a(I5
g6
I0
tp397
a(I4
g6
I2
tp398
a(I1
g2
I0
tp399
a(I1
g6
I0
tp400
a(I1
g6
I0
tp401
a(I7
g6
I2
tp402
a(I4
g2
I0
tp403
a(I4
g6
I0
tp404
a(I2
g2
I1
tp405
a(I1
g6
I0
tp406
a(I7
g2
I1
tp407
a(I7
g6
I0
tp408
a(I7
g6
I2
tp409
a(I5
g12
I0
tp410
a(I5
g6
I0
tp411
a(I2
g6
I0
tp412
a(I7
g6
I0
tp413
a(I4
g6
I0
tp414
a(I2
g6
I0
tp415
a(I6
g6
I0
tp416
a(I5
g6
I0
tp417
a(I4
g6
I0
tp418
a(I3
g12
I0
tp419
a(I3
g6
I0
tp420
a(I3
g6
I0
tp421
a(I1
g2
I1
tp422
a(I3
g6
I0
tp423
a(I1
g12
I1
tp424
a(I3
g2
I0
tp425
a(I3
g6
I0
tp426
a(I4
g2
I0
tp427
a(I4
g6
I0
tp428
a(I4
g6
I0
tp429
a(I4
g6
I0
tp430
a(I4
g6
I0
tp431
a(I4
g6
I0
tp432
a(I4
g6
I0
tp433
a(I4
g6
I0
tp434
a(I4
g2
I0
tp435
a(I4
g6
I0
tp436
a(I4
g6
I0
tp437
a(I2
g12
I1
tp438
a(I4
g6
I0
tp439
a(I2
g12
I1
tp440
a(I4
g2
I0
tp441
a(I4
g6
I0
tp442
a(I5
g12
I0
tp443
a(I5
g6
I0
tp444
a(I5
g6
I0
tp445
a(I5
g6
I0
tp446
a(I5
g6
I0
tp447
a(I5
g6
I0
tp448
a(I5
g6
I0
tp449
a(I5
g6
I0
tp450
a(I4
g6
I0
tp451
a(I5
g6
I3
tp452
a(I7
g6
I2
tp453
a(I2
g2
I1
tp454
a(I1
g2
I1
tp455
a(I3
g12
I0
tp456
a(I3
g6
I0
tp457
a(I1
g2
I1
tp458
a(I7
g6
I0
tp459
a(I6
g6
I0
tp460
a(I4
g12
I0
tp461
a(I4
g6
I0
tp462
a(I4
g6
I0
tp463
a(I2
g2
I1
tp464
a(I1
g6
I0
tp465
a(I7
g6
I0
tp466
a(I5
g12
I0
tp467
a(I5
g6
I0
tp468
a(I5
g6
I0
tp469
a(I3
g12
I1
tp470
a(I2
g6
I0
tp471
a(I1
g6
I0
tp472
a(I6
g2
I0
tp473
a(I6
g6
I0
tp474
a(I6
g6
I0
tp475
a(I4
g2
I1
tp476
a(I3
g6
I2
tp477
a(I7
g2
I0
tp478
a(I7
g6
I0
tp479
a(I5
g12
I1
tp480
a(I4
g6
I2
tp481
a(I1
g2
I0
tp482
a(I4
g6
I2
tp483
a(I1
g6
I0
tp484
a(I2
g2
I0
tp485
a(I3
g6
I3
tp486
a(I5
g6
I2
tp487
a(I2
g2
I0
tp488
a(I2
g6
I0
tp489
a(I5
g6
I2
tp490
a(I7
g12
I1
tp491
a(I2
g6
I0
tp492
a(I5
g12
I1
tp493
a(I7
g6
I0
tp494
a(I3
g6
I2
tp495
a(I7
g2
I0
tp496
a(I1
g6
I2
tp497
a(I5
g12
I0
tp498
a(I5
g6
I0
tp499
a(I5
g6
I0
tp500
a(I1
g2
I0
tp501
a(I1
g6
I0
tp502
a(I1
g6
I0
tp503
a(I1
g6
I0
tp504
a(I7
g6
I2
tp505
a(I4
g2
I0
tp506
a(I5
g6
I3
tp507
a(I4
g6
I0
tp508
a(I3
g12
I1
tp509
a(I5
g6
I0
tp510
a(I1
g6
I0
tp511
a(I1
g6
I0
tp512
a(I4
g6
I0
tp513
a(I3
g6
I0
tp514
a(I2
g6
I0
tp515
a(I1
g6
I0
tp516
a(I7
g2
I1
tp517
a(I7
g6
I0
tp518
a(I7
g6
I2
tp519
a(I5
g12
I0
tp520
a(I7
g2
I1
tp521
a(I5
g12
I0
tp522
a(I7
g6
I0
tp523
a(I7
g2
I1
tp524
a(I5
g6
I0
tp525
a(I5
g12
I0
tp526
a(I5
g6
I0
tp527
a(I1
g2
I2
tp528
a(I3
g6
I0
tp529
a(I1
g6
I0
tp530
a(I4
g6
I0
tp531
a(I5
g6
I0
tp532
a(I3
g6
I0
tp533
a(I5
g6
I0
tp534
a(I1
g6
I0
tp535
a(I3
g6
I0
tp536
a(I5
g6
I0
tp537
a(I1
g2
I2
tp538
a(I3
g12
I1
tp539
a(I5
g6
I0
tp540
a(I4
g6
I0
tp541
a(I2
g6
I0
tp542
a(I4
g6
I0
tp543
a(I5
g6
I0
tp544
a(I2
g6
I0
tp545
a(I5
g6
I0
tp546
a(I7
g6
I0
tp547
a(I2
g6
I0
tp548
a(I5
g6
I0
tp549
a(I5
g6
I0
tp550
a(I4
g2
I4
tp551
a(I3
g12
I1
tp552
a(I5
g6
I0
tp553
a(I4
g6
I0
tp554
a(I2
g12
I1
tp555
a(I4
g6
I0
tp556
a(I5
g12
I0
tp557
a(I5
g12
I0
tp558
a(I7
g2
I3
tp559
a(I5
g6
I0
tp560
a(I4
g6
I0
tp561
a(I3
g12
I0
tp562
a(I3
g6
I0
tp563
a(I3
g6
I0
tp564
a(I1
g2
I1
tp565
a(I3
g12
I0
tp566
a(I1
g2
I1
tp567
a(I3
g6
I0
tp568
a(I3
g12
I0
tp569
a(I1
g2
I1
tp570
a(I3
g6
I0
tp571
a(I3
g12
I0
tp572
a(I1
g2
I1
tp573
a(I3
g6
I0
tp574
a(I3
g12
I0
tp575
a(I1
g2
I1
tp576
a(I3
g6
I0
tp577
a(I4
g2
I0
tp578
a(I4
g6
I0
tp579
a(I7
g6
I2
tp580
a(I4
g6
I0
tp581
a(I4
g2
I0
tp582
a(I4
g6
I0
tp583
a(I4
g6
I0
tp584
a(I4
g2
I0
tp585
a(I4
g6
I0
tp586
a(I4
g6
I0
tp587
a(I4
g2
I0
tp588
a(I4
g6
I0
tp589
a(I4
g6
I0
tp590
a(I4
g2
I0
tp591
a(I4
g6
I0
tp592
a(I4
g6
I0
tp593
a(I6
g6
I0
tp594
a(I4
g2
I0
tp595
a(I5
g6
I3
tp596
a(I4
g6
I0
tp597
a(I4
g6
I0
tp598
a(I2
g2
I1
tp599
a(I1
g6
I2
tp600
a(I5
g6
I0
tp601
a(I6
g12
I0
tp602
a(I6
g6
I0
tp603
a(I7
g6
I3
tp604
a(I6
g12
I0
tp605
a(I6
g6
I0
tp606
a(I6
g6
I0
tp607
a(I7
g6
I3
tp608
a(I6
g12
I0
tp609
a(I6
g6
I0
tp610
a(I3
g6
I0
tp611
a(I7
g6
I0
tp612
a(I1
g6
I0
tp613
a(I5
g6
I0
tp614
a(I5
g6
I0
tp615
a(I3
g12
I1
tp616
a(I5
g12
I0
tp617
a(I1
g6
I2
tp618
a(I5
g6
I0
tp619
a(I5
g6
I0
tp620
a(I3
g12
I1
tp621
a(I5
g12
I0
tp622
a(I1
g6
I2
tp623
a(I5
g6
I0
tp624
a(I5
g6
I0
tp625
a(I3
g6
I0
tp626
a(I7
g6
I0
tp627
a(I1
g6
I0
tp628
a(I4
g6
I0
tp629
a(I4
g6
I0
tp630
a(I4
g14
I0
tp631
a(I4
g14
I0
tp632
a(I4
g14
I0
tp633
a(I4
g14
I0
tp634
a(I4
g14
I0
tp635
a(I4
g14
I0
tp636
a(I4
g14
I0
tp637
a(I1
g2
I2
tp638
a(I5
g6
I0
tp639
a(I1
g6
I2
tp640
a(I5
g6
I0
tp641
a(I1
g6
I0
tp642
aa.