ccollections
Counter
p0
((dp1
((I7
S'minor'
p2
I1
tp3
(I2
S'other'
p4
I0
tp5
(I7
g2
I1
tp6
(I2
S'major'
p7
I0
tp8
tp9
F0.001579778830963665
s(S'3'
p10
S'11'
p11
S'5'
p12
tp13
F0.0015772870662460567
s((I4
g4
I0
tp14
(I3
g2
I0
tp15
(I3
g4
I0
tp16
(I4
g7
I0
tp17
tp18
F0.001579778830963665
s((I4
g4
I0
tp19
(I4
g2
I0
tp20
tp21
F0.004724409448818898
s((I4
g7
I0
tp22
(I4
g7
I0
tp23
tp24
F0.0015748031496062992
s((I2
g4
I3
tp25
(I5
g4
I0
tp26
(I5
g4
I0
tp27
tp28
F0.0015772870662460567
s((I3
g2
I0
tp29
(I4
g4
I3
tp30
tp31
F0.0015748031496062992
s((I3
g4
I2
tp32
(I7
g4
I0
tp33
tp34
F0.0015748031496062992
s((I1
g2
I0
tp35
(I2
g4
I3
tp36
(I4
g4
I2
tp37
tp38
F0.0015772870662460567
s(S'0'
p39
S'8'
p40
g40
S'4'
p41
tp42
F0.00315955766192733
s(S'7'
p43
g43
g43
g12
tp44
F0.001579778830963665
s((I7
g2
I0
tp45
(I4
g4
I0
tp46
(I3
g4
I0
tp47
(I2
g4
I0
tp48
tp49
F0.001579778830963665
s((I7
g4
I2
tp50
(I1
g4
I0
tp51
(I4
g4
I0
tp52
tp53
F0.0015772870662460567
s(g39
S'10'
p54
g10
g41
tp55
F0.001579778830963665
s((I2
g2
I2
tp56
(I6
g7
I0
tp57
(I6
g4
I0
tp58
tp59
F0.0015772870662460567
s((I3
g7
I1
tp60
(I3
g7
I1
tp61
(I5
g4
I0
tp62
tp63
F0.0015772870662460567
s(g39
g12
g10
S'1'
p64
tp65
F0.001579778830963665
s(g39
S'11'
p66
g39
tp67
F0.012618296529968456
s(S'10'
p68
S'9'
p69
g69
g69
tp70
F0.00315955766192733
s((I6
g7
I0
tp71
(I3
g4
I0
tp72
(I6
g4
I0
tp73
(I2
g4
I2
tp74
tp75
F0.001579778830963665
s(g40
g12
g43
S'10'
p76
tp77
F0.001579778830963665
s((I7
g2
I0
tp78
(I7
g4
I0
tp79
(I4
g4
I0
tp80
(I2
g4
I0
tp81
tp82
F0.001579778830963665
s((I4
g4
I0
tp83
(I7
g4
I0
tp84
(I3
g4
I0
tp85
tp86
F0.0015772870662460567
s(g69
S'10'
p87
S'11'
p88
tp89
F0.0015772870662460567
s((I4
g7
I2
tp90
(I4
g4
I0
tp91
tp92
F0.0031496062992125984
s((I3
g2
I0
tp93
(I3
g4
I0
tp94
(I3
g4
I0
tp95
(I3
g4
I0
tp96
tp97
F0.001579778830963665
s((I5
g4
I0
tp98
(I5
g2
I0
tp99
(I5
g4
I0
tp100
tp101
F0.0031545741324921135
s((I7
g2
I0
tp102
(I6
g4
I0
tp103
tp104
F0.0015748031496062992
s((I2
g4
I2
tp105
(I3
g4
I2
tp106
(I2
g4
I0
tp107
tp108
F0.0015772870662460567
s(g39
S'10'
p109
g39
g39
tp110
F0.004739336492890996
s((I2
g4
I0
tp111
g84
g85
g83
tp112
F0.001579778830963665
s((I3
g4
I0
tp113
(I6
g4
I0
tp114
(I5
g4
I0
tp115
tp116
F0.0015772870662460567
s(g39
g69
g12
tp117
F0.0031545741324921135
s(g39
g39
g39
S'10'
p118
tp119
F0.001579778830963665
s((I5
g7
I1
tp120
g102
g33
g32
tp121
F0.001579778830963665
s(g12
S'6'
p122
g41
g10
tp123
F0.001579778830963665
s((I5
g4
I0
tp124
(I3
g2
I0
tp125
(I3
g4
I0
tp126
(I3
g4
I0
tp127
tp128
F0.001579778830963665
s((I3
S'diminished'
p129
I0
tp130
(I3
g129
I0
tp131
tp132
F0.009448818897637795
s((I4
g4
I2
tp133
(I1
g4
I0
tp134
tp135
F0.0031496062992125984
s((I6
g2
I1
tp136
(I3
g4
I0
tp137
(I1
g2
I1
tp138
(I7
g4
I0
tp139
tp140
F0.001579778830963665
s((I5
g7
I0
tp141
(I5
g4
I0
tp142
(I1
g4
I2
tp143
(I5
g4
I0
tp144
tp145
F0.001579778830963665
s((I5
g4
I0
tp146
(I6
g4
I0
tp147
(I3
g4
I0
tp148
(I1
g4
I0
tp149
tp150
F0.001579778830963665
s((I2
g7
I0
tp151
(I5
g4
I0
tp152
(I5
g4
I2
tp153
(I1
g4
I0
tp154
tp155
F0.001579778830963665
s(g43
S'10'
p156
g69
g12
tp157
F0.001579778830963665
s((I7
g4
I2
tp158
(I7
g2
I1
tp159
tp160
F0.0031496062992125984
s((I7
g4
I0
tp161
(I7
g2
I0
tp162
(I1
g4
I3
tp163
tp164
F0.0031545741324921135
s((I3
g4
I0
tp165
g22
(I6
g2
I3
tp166
(I4
g4
I0
tp167
tp168
F0.001579778830963665
s((I2
g4
I0
tp169
(I7
g2
I1
tp170
tp171
F0.011023622047244094
s(S'2'
p172
g12
g10
tp173
F0.006309148264984227
s(g41
g10
g40
g122
tp174
F0.001579778830963665
s((I7
g4
I0
tp175
(I3
g2
I0
tp176
tp177
F0.0015748031496062992
s(g159
g163
g161
tp178
F0.0015772870662460567
s((I2
g4
I0
tp179
(I2
g7
I0
tp180
(I2
g4
I0
tp181
(I5
g4
I2
tp182
tp183
F0.001579778830963665
s((I5
g7
I0
tp184
(I5
g7
I0
tp185
(I6
g4
I3
tp186
tp187
F0.0015772870662460567
s((I3
g4
I1
tp188
(I5
g4
I0
tp189
(I4
g2
I4
tp190
tp191
F0.0015772870662460567
s((I4
g4
I0
tp192
(I2
g7
I1
tp193
(I4
g2
I0
tp194
tp195
F0.0015772870662460567
s((I6
g4
I0
tp196
(I4
g7
I0
tp197
tp198
F0.0015748031496062992
s((I7
g4
I3
tp199
(I4
g129
I1
tp200
tp201
F0.0015748031496062992
s(g122
g69
g39
tp202
F0.0031545741324921135
s(g39
g41
g39
g69
tp203
F0.004739336492890996
s(g122
g40
g10
tp204
F0.006309148264984227
s((I5
g4
I0
tp205
(I7
g4
I0
tp206
(I5
g4
I0
tp207
tp208
F0.0015772870662460567
s(g43
g41
g69
tp209
F0.0015772870662460567
s(g62
g100
g98
g61
tp210
F0.001579778830963665
s(g19
(I5
g4
I0
tp211
g20
tp212
F0.0031545741324921135
s((I1
g4
I0
tp213
(I2
g7
I1
tp214
tp215
F0.0015748031496062992
s((I2
g4
I0
tp216
(I5
g4
I0
tp217
tp218
F0.0031496062992125984
s(g172
S'10'
p219
g12
g10
tp220
F0.00315955766192733
s((I1
g4
I0
tp221
(I2
g4
I0
tp222
(I1
g2
I1
tp223
tp224
F0.0015772870662460567
s((I6
g4
I2
tp225
(I6
g4
I0
tp226
tp227
F0.0031496062992125984
s((I3
g4
I0
tp228
(I3
g4
I0
tp229
(I4
g4
I0
tp230
tp231
F0.0015772870662460567
s((I1
g7
I1
tp232
(I4
g4
I0
tp233
(I3
g4
I0
tp234
tp235
F0.0015772870662460567
s((I5
g7
I1
tp236
g120
tp237
F0.004724409448818898
s(g39
g41
g39
tp238
F0.007886435331230283
s((I3
g4
I4
tp239
(I3
g2
I1
tp240
(I1
g7
I2
tp241
tp242
F0.0015772870662460567
s(g43
g69
g69
g40
tp243
F0.001579778830963665
s(g197
(I6
g4
I2
tp244
(I4
g7
I0
tp245
(I6
g2
I1
tp246
tp247
F0.001579778830963665
s((I7
g2
I0
tp248
(I7
g2
I0
tp249
(I5
g129
I1
tp250
tp251
F0.0015772870662460567
s((I1
g4
I2
tp252
(I3
g2
I1
tp253
tp254
F0.0015748031496062992
s((I6
g4
I0
tp255
(I1
g4
I0
tp256
tp257
F0.0031496062992125984
s((I5
g7
I0
tp258
g199
(I4
g129
I1
tp259
tp260
F0.0015772870662460567
s((I2
g4
I0
tp261
(I1
g4
I0
tp262
(I2
g7
I0
tp263
(I2
g4
I0
tp264
tp265
F0.001579778830963665
s(g134
(I7
g4
I0
tp266
(I5
g7
I1
tp267
tp268
F0.0015772870662460567
s(g100
(I5
g4
I0
tp269
g99
tp270
F0.0015772870662460567
s((I3
g2
I0
tp271
g182
g179
tp272
F0.0015772870662460567
s(g43
S'11'
p273
g69
tp274
F0.0031545741324921135
s(g69
g273
tp275
F0.004724409448818898
s((I1
g129
I1
tp276
(I7
g2
I1
tp277
(I3
g2
I0
tp278
(I3
g2
I0
tp279
tp280
F0.001579778830963665
s(g39
g12
g41
g39
tp281
F0.001579778830963665
s((I5
g4
I0
tp282
g56
(I4
g4
I0
tp283
(I2
g4
I0
tp284
tp285
F0.001579778830963665
s(g172
g10
tp286
F0.011023622047244094
s(g40
g40
g122
tp287
F0.00473186119873817
s(g40
g39
tp288
F0.025196850393700787
s((I6
g4
I2
tp289
(I7
g4
I0
tp290
(I7
g4
I0
tp291
(I7
g4
I0
tp292
tp293
F0.001579778830963665
s((I5
g7
I0
tp294
(I7
g4
I0
tp295
(I7
g4
I0
tp296
(I5
g7
I0
tp297
tp298
F0.001579778830963665
s((I7
g2
I0
tp299
(I1
g4
I0
tp300
(I7
g2
I0
tp301
tp302
F0.0015772870662460567
s((I3
g4
I0
tp303
(I4
g4
I0
tp304
(I7
g4
I0
tp305
(I7
g4
I0
tp306
tp307
F0.001579778830963665
s((I2
g4
I2
tp308
(I4
g7
I1
tp309
(I6
g4
I0
tp310
tp311
F0.0015772870662460567
s((I7
g4
I0
tp312
g32
g120
g236
tp313
F0.001579778830963665
s(g170
(I2
g7
I0
tp314
(I2
g4
I0
tp315
(I2
g4
I0
tp316
tp317
F0.00631911532385466
s(g41
g39
g43
g40
tp318
F0.001579778830963665
s((I7
g4
I2
tp319
g308
(I6
g2
I0
tp320
tp321
F0.0015772870662460567
s((I6
g7
I0
tp322
g107
g105
(I2
g4
I2
tp323
tp324
F0.001579778830963665
s((I4
g4
I0
tp325
(I7
g2
I2
tp326
tp327
F0.0015748031496062992
s(g10
g43
tp328
F0.02047244094488189
s((I1
g4
I2
tp329
(I6
g4
I0
tp330
(I5
g4
I0
tp331
(I6
g4
I3
tp332
tp333
F0.001579778830963665
s((I6
g7
I0
tp334
(I5
g4
I0
tp335
(I3
g7
I1
tp336
(I5
g4
I0
tp337
tp338
F0.001579778830963665
s(g122
g12
g40
tp339
F0.0015772870662460567
s(g166
g22
tp340
F0.0015748031496062992
s((I4
g4
I0
tp341
(I4
g2
I0
tp342
(I2
g7
I1
tp343
tp344
F0.006309148264984227
s((I4
g4
I0
tp345
(I4
g4
I0
tp346
(I6
g4
I0
tp347
(I1
g4
I0
tp348
tp349
F0.001579778830963665
s(g196
g246
g197
tp350
F0.0015772870662460567
s((I5
g2
I1
tp351
(I7
g4
I0
tp352
tp353
F0.0015748031496062992
s((I3
g4
I0
tp354
(I3
g4
I0
tp355
(I1
g4
I0
tp356
tp357
F0.0015772870662460567
s(g39
g69
g39
g69
tp358
F0.001579778830963665
s(g10
g43
g40
g12
tp359
F0.001579778830963665
s(g69
g40
S'10'
p360
g69
tp361
F0.001579778830963665
s(g355
(I7
g2
I2
tp362
(I2
g7
I1
tp363
(I4
g4
I0
tp364
tp365
F0.001579778830963665
s(g41
g41
g69
tp366
F0.0031545741324921135
s(g12
g122
tp367
F0.0031496062992125984
s((I4
g2
I1
tp368
(I6
g4
I0
tp369
tp370
F0.0015748031496062992
s((I7
g7
I1
tp371
(I2
g4
I0
tp372
(I7
g2
I1
tp373
(I2
g4
I0
tp374
tp375
F0.001579778830963665
s(g69
g40
g69
g39
tp376
F0.00315955766192733
s(g250
(I5
g129
I1
tp377
g249
tp378
F0.0015772870662460567
s(g99
(I5
g4
I0
tp379
g269
tp380
F0.0015772870662460567
s(g10
g69
g39
g40
tp381
F0.001579778830963665
s(g309
(I1
g4
I0
tp382
tp383
F0.0015748031496062992
s(g186
g185
tp384
F0.0015748031496062992
s(g52
(I7
g4
I0
tp385
g51
tp386
F0.0015772870662460567
s(g39
g41
g43
tp387
F0.00473186119873817
s(g188
g190
tp388
F0.0015748031496062992
s((I1
g2
I0
tp389
(I7
g4
I0
tp390
g352
g351
tp391
F0.001579778830963665
s(g12
g10
g172
tp392
F0.0015772870662460567
s(g10
S'10'
p393
S'10'
p394
g69
tp395
F0.001579778830963665
s(g213
(I4
g4
I0
tp396
g214
tp397
F0.0015772870662460567
s(g39
g43
g41
tp398
F0.00473186119873817
s((I5
g7
I0
tp399
(I3
g2
I1
tp400
tp401
F0.0015748031496062992
s(g12
g43
g43
tp402
F0.0031545741324921135
s((I6
g4
I0
tp403
(I3
g4
I0
tp404
(I1
g2
I1
tp405
(I7
g4
I0
tp406
tp407
F0.001579778830963665
s(g189
(I5
g4
I0
tp408
(I5
g4
I0
tp409
(I2
g7
I0
tp410
tp411
F0.001579778830963665
s(g40
g43
g76
g40
tp412
F0.001579778830963665
s((I4
g7
I1
tp413
(I6
g4
I0
tp414
(I5
g2
I4
tp415
tp416
F0.0015772870662460567
s((I4
g4
I3
tp417
(I6
g4
I2
tp418
(I3
g2
I0
tp419
tp420
F0.0031545741324921135
s(g40
g41
tp421
F0.0031496062992125984
s(g10
g41
tp422
F0.004724409448818898
s((I2
g7
I0
tp423
(I3
g4
I3
tp424
tp425
F0.0015748031496062992
s(g162
(I4
g4
I0
tp426
(I3
g4
I2
tp427
tp428
F0.00473186119873817
s(g43
g69
g12
tp429
F0.0015772870662460567
s(g39
g40
g43
tp430
F0.0015772870662460567
s(g109
g40
tp431
F0.007874015748031496
s(g159
g161
tp432
F0.0015748031496062992
s((I6
g129
I1
tp433
g91
g90
(I6
g129
I1
tp434
tp435
F0.00315955766192733
s(g35
(I1
g2
I0
tp436
g36
g37
tp437
F0.001579778830963665
s(g43
g39
g41
g69
tp438
F0.001579778830963665
s(g69
g69
g69
g68
tp439
F0.00315955766192733
s((I6
g2
I0
tp440
(I6
g129
I0
tp441
tp442
F0.0031496062992125984
s(g148
(I1
g4
I0
tp443
g147
tp444
F0.0015772870662460567
s(g69
g39
g69
g69
tp445
F0.00631911532385466
s(g10
g10
tp446
F0.0015748031496062992
s(g61
g100
g98
tp447
F0.0015772870662460567
s(g39
g43
g12
tp448
F0.0031545741324921135
s(g239
g241
tp449
F0.0015748031496062992
s(g223
(I4
g4
I0
tp450
(I3
g4
I0
tp451
g222
tp452
F0.001579778830963665
s(g199
(I3
g2
I2
tp453
(I5
g4
I4
tp454
g200
tp455
F0.001579778830963665
s(g10
g39
g54
tp456
F0.0015772870662460567
s(g434
g91
g90
tp457
F0.0031545741324921135
s(g37
(I7
g4
I0
tp458
g436
g36
tp459
F0.001579778830963665
s(g40
g69
g40
g122
tp460
F0.00315955766192733
s(g124
g126
g127
tp461
F0.0015772870662460567
s((I2
g4
I3
tp462
g133
(I1
g2
I0
tp463
tp464
F0.0031545741324921135
s(g348
g346
g347
tp465
F0.0015772870662460567
s((I2
g4
I0
tp466
g264
g261
tp467
F0.0015772870662460567
s((I7
g4
I0
tp468
g161
g159
g158
tp469
F0.001579778830963665
s((I4
g4
I0
tp470
g282
(I6
g4
I0
tp471
tp472
F0.0015772870662460567
s(g122
g69
g69
g39
tp473
F0.00315955766192733
s((I4
g4
I0
tp474
g347
g348
g345
tp475
F0.001579778830963665
s(g39
g39
g69
tp476
F0.011041009463722398
s(g176
(I2
g129
I1
tp477
tp478
F0.0015748031496062992
s((I5
g7
I1
tp479
(I3
g4
I2
tp480
(I7
g4
I0
tp481
(I5
g7
I1
tp482
tp483
F0.001579778830963665
s(g62
g98
g61
tp484
F0.0031545741324921135
s(g41
g39
g12
g12
tp485
F0.001579778830963665
s((I3
g4
I0
tp486
g419
g417
(I3
g4
I0
tp487
tp488
F0.00315955766192733
s(g41
g40
tp489
F0.007874015748031496
s((I1
g4
I0
tp490
g37
g35
tp491
F0.0015772870662460567
s(g480
(I7
g2
I0
tp492
(I5
g7
I1
tp493
(I7
g2
I0
tp494
tp495
F0.001579778830963665
s(g106
g248
tp496
F0.004724409448818898
s(g40
g43
g40
g39
tp497
F0.004739336492890996
s((I2
g4
I2
tp498
(I3
g2
I1
tp499
(I6
g4
I0
tp500
(I6
g4
I0
tp501
tp502
F0.001579778830963665
s((I7
g4
I2
tp503
(I1
g4
I3
tp504
(I7
g2
I1
tp505
tp506
F0.0015772870662460567
s(g347
(I4
g4
I0
tp507
(I1
g4
I0
tp508
g346
tp509
F0.001579778830963665
s(g41
g69
g39
tp510
F0.00473186119873817
s(g172
g12
g41
tp511
F0.00473186119873817
s((I6
g7
I0
tp512
g223
g221
(I1
g4
I2
tp513
tp514
F0.001579778830963665
s((I6
g7
I1
tp515
(I1
g4
I0
tp516
(I1
g4
I0
tp517
tp518
F0.00473186119873817
s(g39
g43
g69
g10
tp519
F0.001579778830963665
s(g39
g40
g69
tp520
F0.007886435331230283
s(g43
g41
g39
g122
tp521
F0.00315955766192733
s((I4
g4
I0
tp522
g320
g319
(I4
g7
I0
tp523
tp524
F0.001579778830963665
s((I4
g7
I0
tp525
g406
g403
tp526
F0.0015772870662460567
s(g161
g163
tp527
F0.0031496062992125984
s(g351
g390
g352
tp528
F0.0015772870662460567
s((I7
g4
I2
tp529
g326
g325
tp530
F0.0015772870662460567
s((I2
g2
I2
tp531
(I4
g4
I0
tp532
(I6
g4
I0
tp533
tp534
F0.0015772870662460567
s(g41
g69
tp535
F0.011023622047244094
s(g12
g39
g12
tp536
F0.0015772870662460567
s(g69
g172
g39
tp537
F0.0015772870662460567
s((I4
g7
I1
tp538
(I6
g2
I0
tp539
(I6
g4
I0
tp540
tp541
F0.0015772870662460567
s((I6
g4
I0
tp542
g498
tp543
F0.0015748031496062992
s(g41
g39
g12
g122
tp544
F0.001579778830963665
s(g69
g69
g393
g394
tp545
F0.001579778830963665
s((I5
g4
I0
tp546
g186
g184
tp547
F0.00473186119873817
s(g40
g40
tp548
F0.011023622047244094
s(g10
g39
tp549
F0.01732283464566929
s(g513
g221
tp550
F0.0015748031496062992
s(g114
g533
g531
(I4
g7
I1
tp551
tp552
F0.001579778830963665
s(g278
g277
tp553
F0.0031496062992125984
s(g69
g40
g69
g41
tp554
F0.001579778830963665
s((I7
g4
I0
tp555
g158
g468
tp556
F0.0031545741324921135
s(g10
S'11'
p557
g39
tp558
F0.0031545741324921135
s(g297
g295
g296
tp559
F0.0015772870662460567
s(g74
g72
g73
tp560
F0.0015772870662460567
s(g10
g39
g122
g43
tp561
F0.00315955766192733
s(g309
(I4
g4
I2
tp562
(I6
g7
I1
tp563
g382
tp564
F0.001579778830963665
s((I4
g4
I0
tp565
g14
(I4
g4
I0
tp566
(I4
g4
I0
tp567
tp568
F0.00631911532385466
s(g39
g69
g41
g69
tp569
F0.001579778830963665
s(g130
(I3
g4
I0
tp570
(I3
g4
I0
tp571
g131
tp572
F0.001579778830963665
s(g122
g122
g41
g39
tp573
F0.001579778830963665
s(S'10'
p574
g39
g43
tp575
F0.0031545741324921135
s(g12
g156
g69
tp576
F0.0015772870662460567
s((I5
g7
I0
tp577
g466
tp578
F0.0015748031496062992
s(g334
g336
g337
tp579
F0.0015772870662460567
s(g226
g139
g136
tp580
F0.0031545741324921135
s((I1
g2
I0
tp581
g26
g27
g25
tp582
F0.001579778830963665
s(g419
g29
g418
tp583
F0.0015772870662460567
s(g64
g122
g12
g10
tp584
F0.001579778830963665
s(g39
g43
g12
g39
tp585
F0.001579778830963665
s(g122
g43
S'10'
p586
g40
tp587
F0.001579778830963665
s(g39
g39
g69
g39
tp588
F0.001579778830963665
s(g43
g39
tp589
F0.04251968503937008
s(g551
g531
tp590
F0.0015748031496062992
s(g40
S'10'
p591
S'10'
p592
tp593
F0.00473186119873817
s(g15
(I1
g7
I1
tp594
(I3
g4
I0
tp595
(I1
g7
I1
tp596
tp597
F0.001579778830963665
s(g41
g122
g69
g69
tp598
F0.001579778830963665
s(g43
g43
S'11'
p599
g10
tp600
F0.001579778830963665
s((I2
g4
I0
tp601
(I7
g4
I2
tp602
(I4
g4
I0
tp603
(I4
g4
I0
tp604
tp605
F0.001579778830963665
s((I2
g4
I0
tp606
g501
g498
g542
tp607
F0.001579778830963665
s((I7
g4
I2
tp608
(I3
g4
I0
tp609
(I1
g2
I1
tp610
tp611
F0.0015772870662460567
s(g194
g193
tp612
F0.004724409448818898
s((I2
g4
I2
tp613
(I3
g2
I1
tp614
tp615
F0.0015748031496062992
s(g368
g256
g255
g369
tp616
F0.001579778830963665
s((I7
g2
I0
tp617
g522
(I4
g4
I0
tp618
tp619
F0.0015772870662460567
s((I5
g7
I1
tp620
g482
g479
tp621
F0.0015772870662460567
s((I1
g2
I1
tp622
g513
g512
tp623
F0.0015772870662460567
s(g477
(I2
g129
I1
tp624
(I5
g4
I3
tp625
tp626
F0.0015772870662460567
s(g91
(I7
g4
I0
tp627
(I6
g4
I0
tp628
(I5
g4
I0
tp629
tp630
F0.00315955766192733
s(g414
(I1
g4
I0
tp631
(I3
g4
I0
tp632
(I6
g4
I0
tp633
tp634
F0.001579778830963665
s(g180
(I1
g4
I0
tp635
(I1
g4
I0
tp636
(I6
g7
I1
tp637
tp638
F0.001579778830963665
s(g43
g39
g40
g69
tp639
F0.001579778830963665
s(g586
g40
g40
g43
tp640
F0.001579778830963665
s(g451
(I5
g4
I0
tp641
g450
tp642
F0.0031545741324921135
s((I2
g4
I0
tp643
g158
g468
g555
tp644
F0.001579778830963665
s((I2
g2
I0
tp645
g373
g374
g371
tp646
F0.001579778830963665
s(g39
g41
g12
tp647
F0.0031545741324921135
s(g415
g633
g414
tp648
F0.0015772870662460567
s(g346
g507
g508
tp649
F0.0015772870662460567
s(g309
g563
g382
tp650
F0.0015772870662460567
s(g172
g10
g12
g10
tp651
F0.001579778830963665
s(g200
g620
g453
g454
tp652
F0.001579778830963665
s(g182
g181
tp653
F0.0015748031496062992
s(g69
g41
g40
tp654
F0.0015772870662460567
s(g441
(I6
g2
I1
tp655
(I6
g129
I1
tp656
(I3
g4
I0
tp657
tp658
F0.00315955766192733
s(g12
g40
g69
g10
tp659
F0.001579778830963665
s((I4
g4
I0
tp660
g151
tp661
F0.0015748031496062992
s(g329
g332
tp662
F0.0015748031496062992
s(g58
(I1
g2
I1
tp663
(I6
g4
I0
tp664
g57
tp665
F0.001579778830963665
s(g11
g10
g172
g39
tp666
F0.001579778830963665
s(g664
(I6
g7
I0
tp667
(I1
g4
I0
tp668
g663
tp669
F0.001579778830963665
s((I2
g4
I0
tp670
(I2
g4
I0
tp671
(I2
g7
I0
tp672
(I7
g2
I1
tp673
tp674
F0.004739336492890996
s(g10
g10
g172
g12
tp675
F0.001579778830963665
s(g43
S'11'
p676
g39
g39
tp677
F0.00631911532385466
s((I2
g4
I0
tp678
(I4
g4
I0
tp679
(I3
g4
I0
tp680
(I2
g7
I0
tp681
tp682
F0.00315955766192733
s((I2
g4
I3
tp683
g486
(I4
g4
I2
tp684
(I1
g2
I0
tp685
tp686
F0.001579778830963665
s((I1
g2
I1
tp687
(I4
g4
I3
tp688
(I6
g4
I2
tp689
tp690
F0.0015772870662460567
s((I4
g4
I0
tp691
g19
(I4
g4
I0
tp692
(I2
g7
I1
tp693
tp694
F0.001579778830963665
s(g283
g56
tp695
F0.0015748031496062992
s((I1
g2
I3
tp696
g337
g334
(I6
g7
I0
tp697
tp698
F0.001579778830963665
s(g122
g39
g172
tp699
F0.0031545741324921135
s((I4
g7
I0
tp700
(I4
g4
I0
tp701
tp702
F0.0015748031496062992
s(g52
g51
tp703
F0.004724409448818898
s(g39
g43
g122
tp704
F0.0015772870662460567
s(g40
g43
g40
g10
tp705
F0.001579778830963665
s(g179
g182
tp706
F0.0015748031496062992
s(g273
g39
g41
g39
tp707
F0.001579778830963665
s((I4
g4
I0
tp708
g406
g403
g525
tp709
F0.001579778830963665
s(g12
g69
g10
g12
tp710
F0.00315955766192733
s(g69
g172
g39
g172
tp711
F0.001579778830963665
s(g39
g69
g41
tp712
F0.006309148264984227
s((I2
g4
I0
tp713
(I2
g7
I2
tp714
(I6
g7
I0
tp715
(I2
g4
I0
tp716
tp717
F0.001579778830963665
s((I3
g2
I0
tp718
(I2
g7
I0
tp719
(I7
g2
I1
tp720
(I2
g4
I0
tp721
tp722
F0.001579778830963665
s(g172
S'11'
p723
g39
g39
tp724
F0.00315955766192733
s((I6
g4
I0
tp725
(I1
g4
I0
tp726
(I7
g4
I0
tp727
(I6
g2
I1
tp728
tp729
F0.001579778830963665
s(g385
(I5
g4
I0
tp730
(I3
g4
I0
tp731
tp732
F0.0015772870662460567
s(g323
g106
g107
g105
tp733
F0.001579778830963665
s((I4
g4
I0
tp734
(I7
g4
I2
tp735
(I4
g4
I0
tp736
tp737
F0.0031545741324921135
s(g50
g52
tp738
F0.0031496062992125984
s(g41
g172
tp739
F0.004724409448818898
s(g508
g356
g354
g507
tp740
F0.001579778830963665
s(g57
g668
g663
g664
tp741
F0.001579778830963665
s(g692
g20
g19
tp742
F0.0031545741324921135
s((I3
g2
I4
tp743
g474
tp744
F0.0015748031496062992
s(g385
g731
tp745
F0.0015748031496062992
s(S'10'
p746
g69
g40
g10
tp747
F0.001579778830963665
s((I7
g2
I2
tp748
g701
g700
(I4
g4
I0
tp749
tp750
F0.001579778830963665
s((I3
g2
I0
tp751
(I7
g4
I0
tp752
(I6
g4
I2
tp753
tp754
F0.0031545741324921135
s(g12
g40
g122
tp755
F0.0015772870662460567
s(g206
(I2
g7
I1
tp756
(I7
g4
I2
tp757
(I7
g4
I0
tp758
tp759
F0.001579778830963665
s(g39
g746
g122
g39
tp760
F0.001579778830963665
s(g500
g499
tp761
F0.0015748031496062992
s(g39
g122
g41
g39
tp762
F0.001579778830963665
s(g228
g713
g229
g230
tp763
F0.001579778830963665
s((I7
g4
I0
tp764
(I5
g4
I0
tp765
(I2
g4
I0
tp766
(I6
g4
I0
tp767
tp768
F0.001579778830963665
s(g48
(I6
g4
I0
tp769
g46
g47
tp770
F0.001579778830963665
s((I4
g7
I0
tp771
(I3
g2
I0
tp772
(I7
g4
I2
tp773
(I7
g4
I2
tp774
tp775
F0.00315955766192733
s(g88
S'10'
p776
g87
tp777
F0.0015772870662460567
s((I2
S'augmented'
p778
I2
tp779
g440
(I4
g7
I1
tp780
(I6
g129
I0
tp781
tp782
F0.00315955766192733
s((I7
g4
I0
tp783
(I4
g4
I0
tp784
(I3
g4
I2
tp785
(I7
g2
I0
tp786
tp787
F0.001579778830963665
s(g106
g250
g248
tp788
F0.0015772870662460567
s(g657
g433
g655
g656
tp789
F0.00315955766192733
s(g10
g122
g41
tp790
F0.0031545741324921135
s(g213
g708
g396
g214
tp791
F0.001579778830963665
s((I3
g4
I0
tp792
(I3
g4
I0
tp793
(I3
g4
I0
tp794
(I3
g4
I0
tp795
tp796
F0.00631911532385466
s(g555
g159
g158
g468
tp797
F0.001579778830963665
s(g294
g296
g297
tp798
F0.0015772870662460567
s(g480
g493
g494
tp799
F0.0015772870662460567
s((I6
g4
I0
tp800
g115
g113
(I5
g4
I0
tp801
tp802
F0.001579778830963665
s(g39
g43
g676
tp803
F0.01577287066246057
s(g40
g43
g12
g40
tp804
F0.001579778830963665
s(g69
S'11'
p805
g69
g69
tp806
F0.001579778830963665
s((I4
g4
I0
tp807
g767
g764
tp808
F0.0015772870662460567
s(g33
g103
g102
tp809
F0.0015772870662460567
s(g40
g586
tp810
F0.014173228346456693
s((I5
g4
I0
tp811
g697
g696
(I6
g4
I0
tp812
tp813
F0.001579778830963665
s(g10
g599
tp814
F0.0015748031496062992
s(g69
g172
g122
tp815
F0.0031545741324921135
s((I2
g4
I0
tp816
g645
tp817
F0.0015748031496062992
s((I1
g4
I0
tp818
g685
g683
(I1
g4
I0
tp819
tp820
F0.001579778830963665
s(g40
g69
g69
tp821
F0.0015772870662460567
s(g693
g20
g19
g692
tp822
F0.00315955766192733
s(g277
(I7
g2
I1
tp823
tp824
F0.0031496062992125984
s(g43
g69
g43
tp825
F0.00473186119873817
s((I3
g4
I0
tp826
(I3
g2
I0
tp827
tp828
F0.015748031496062992
s(g43
g39
g39
g39
tp829
F0.001579778830963665
s((I3
g4
I0
tp830
(I3
g4
I0
tp831
(I6
g4
I2
tp832
tp833
F0.0015772870662460567
s(g57
g664
tp834
F0.0015748031496062992
s(g608
(I3
g4
I0
tp835
g609
g610
tp836
F0.001579778830963665
s(g60
g98
g61
g62
tp837
F0.001579778830963665
s(g41
g39
g41
tp838
F0.0015772870662460567
s(g757
(I2
g7
I1
tp839
(I4
g2
I0
tp840
g756
tp841
F0.001579778830963665
s(g69
g39
g172
g122
tp842
F0.00315955766192733
s(g10
g43
g10
g172
tp843
F0.001579778830963665
s(g453
g482
g479
g620
tp844
F0.001579778830963665
s(g664
g668
g663
tp845
F0.0015772870662460567
s(g134
g267
tp846
F0.0015748031496062992
s((I7
g4
I2
tp847
g826
(I1
g129
I1
tp848
(I3
g2
I0
tp849
tp850
F0.001579778830963665
s(g819
g684
g685
g683
tp851
F0.001579778830963665
s(g172
g39
g12
g41
tp852
F0.00315955766192733
s(g122
g40
g10
g746
tp853
F0.001579778830963665
s(g219
g12
g12
g41
tp854
F0.00315955766192733
s(g214
g525
g708
g396
tp855
F0.001579778830963665
s(g12
g39
g156
g69
tp856
F0.001579778830963665
s(g50
g385
g51
g52
tp857
F0.001579778830963665
s(g400
(I5
g778
I0
tp858
tp859
F0.0015748031496062992
s(g481
g493
g494
g480
tp860
F0.001579778830963665
s((I5
g4
I0
tp861
(I5
g7
I0
tp862
(I5
g4
I0
tp863
tp864
F0.011041009463722398
s((I4
g7
I0
tp865
g807
(I4
g4
I0
tp866
(I2
g7
I1
tp867
tp868
F0.00315955766192733
s(g774
g772
g773
tp869
F0.0031545741324921135
s((I6
g4
I0
tp870
g471
g470
tp871
F0.0015772870662460567
s(g12
g172
tp872
F0.0015748031496062992
s(g577
g261
g466
tp873
F0.0015772870662460567
s(g689
(I4
g4
I0
tp874
(I3
g4
I0
tp875
g688
tp876
F0.001579778830963665
s(g277
g169
g823
tp877
F0.0031545741324921135
s(g122
g69
g43
g43
tp878
F0.001579778830963665
s(g811
g696
g812
tp879
F0.0015772870662460567
s(g336
(I6
g4
I0
tp880
g335
tp881
F0.0015772870662460567
s(g76
g12
g43
tp882
F0.0015772870662460567
s(g816
g374
g371
g645
tp883
F0.001579778830963665
s(g663
g622
g667
g668
tp884
F0.001579778830963665
s(g39
g39
g43
g40
tp885
F0.00631911532385466
s(g404
(I3
g7
I0
tp886
(I3
g4
I0
tp887
tp888
F0.0015772870662460567
s(g41
g122
g41
g10
tp889
F0.001579778830963665
s(g25
g27
tp890
F0.0015748031496062992
s(g172
g10
g172
g39
tp891
F0.001579778830963665
s(g41
g39
g43
S'11'
p892
tp893
F0.001579778830963665
s((I2
g4
I0
tp894
(I6
g4
I0
tp895
(I4
g4
I0
tp896
(I1
g4
I0
tp897
tp898
F0.001579778830963665
s((I2
g7
I0
tp899
(I7
g2
I1
tp900
tp901
F0.0031496062992125984
s(g305
(I3
g4
I0
tp902
(I2
g7
I1
tp903
g304
tp904
F0.001579778830963665
s(g562
g35
g490
tp905
F0.0015772870662460567
s(g861
g863
tp906
F0.026771653543307086
s(g153
g152
tp907
F0.0015748031496062992
s(g12
g10
g122
tp908
F0.0015772870662460567
s(g601
g603
g604
tp909
F0.0015772870662460567
s((I3
g2
I0
tp910
g124
tp911
F0.0015748031496062992
s(g40
g69
g69
g69
tp912
F0.001579778830963665
s(g570
(I6
g4
I0
tp913
(I7
g4
I0
tp914
tp915
F0.0015772870662460567
s(g39
g69
g69
g10
tp916
F0.001579778830963665
s(g39
S'10'
p917
g12
g10
tp918
F0.001579778830963665
s(g295
g258
tp919
F0.0015748031496062992
s(g40
g39
g43
g574
tp920
F0.00315955766192733
s(g54
g41
g43
g39
tp921
F0.00315955766192733
s(g43
g39
g41
g39
tp922
F0.001579778830963665
s(g436
g458
tp923
F0.0015748031496062992
s((I3
g2
I0
tp924
(I3
g2
I0
tp925
(I3
g4
I0
tp926
(I3
g4
I0
tp927
tp928
F0.004739336492890996
s((I6
g7
I0
tp929
(I5
g2
I0
tp930
(I5
g4
I0
tp931
tp932
F0.0015772870662460567
s((I1
g2
I0
tp933
(I6
g7
I1
tp934
tp935
F0.0015748031496062992
s(g279
g278
tp936
F0.0031496062992125984
s(g43
g69
g68
g69
tp937
F0.001579778830963665
s(g249
g377
tp938
F0.0031496062992125984
s(g43
g39
g273
g69
tp939
F0.001579778830963665
s(g689
g875
g688
tp940
F0.0015772870662460567
s(g10
g12
g39
g39
tp941
F0.001579778830963665
s((I5
g2
I0
tp942
g213
(I7
g4
I0
tp943
tp944
F0.0015772870662460567
s(g248
g377
g249
g250
tp945
F0.001579778830963665
s(g629
g627
g628
tp946
F0.0031545741324921135
s(g170
g315
g316
tp947
F0.006309148264984227
s(g226
g136
tp948
F0.0031496062992125984
s(g80
g79
tp949
F0.0031496062992125984
s(g594
(I3
g4
I0
tp950
(I3
g4
I0
tp951
tp952
F0.0015772870662460567
s(g122
g10
g746
tp953
F0.0015772870662460567
s(g655
g434
g433
tp954
F0.0031545741324921135
s(g167
g166
tp955
F0.0015748031496062992
s((I5
g129
I1
tp956
g643
tp957
F0.0015748031496062992
s(g773
g772
tp958
F0.0031496062992125984
s(g69
g39
g43
g39
tp959
F0.001579778830963665
s(g40
S'10'
p960
g69
tp961
F0.0031545741324921135
s((I2
g4
I0
tp962
g498
g542
g606
tp963
F0.001579778830963665
s(g10
g69
g43
tp964
F0.0015772870662460567
s(g39
g43
g39
tp965
F0.006309148264984227
s(g39
g69
g43
tp966
F0.0031545741324921135
s(g39
g39
g118
g39
tp967
F0.001579778830963665
s(g870
g282
g471
g470
tp968
F0.001579778830963665
s(g17
g16
tp969
F0.0031496062992125984
s(g505
g504
tp970
F0.0015748031496062992
s(g172
g39
g39
tp971
F0.0031545741324921135
s(g41
g69
g12
g43
tp972
F0.001579778830963665
s(g20
(I3
g4
I0
tp973
g211
tp974
F0.0015772870662460567
s(g839
g332
g329
(I3
g2
I1
tp975
tp976
F0.001579778830963665
s(g414
g632
g633
tp977
F0.0015772870662460567
s((I7
g4
I3
tp978
g322
(I7
g4
I3
tp979
tp980
F0.0015772870662460567
s(g663
g667
g668
tp981
F0.0015772870662460567
s(g229
g715
g716
g713
tp982
F0.001579778830963665
s(g363
g362
tp983
F0.0015748031496062992
s(g39
g66
tp984
F0.01889763779527559
s(g211
g660
g973
tp985
F0.0015772870662460567
s(g147
(I4
g4
I0
tp986
g443
tp987
F0.0015772870662460567
s(g440
g656
g657
g441
tp988
F0.00315955766192733
s(g10
g39
g39
g43
tp989
F0.001579778830963665
s(g172
g41
g172
tp990
F0.0015772870662460567
s(g512
g513
tp991
F0.0015748031496062992
s(g41
g39
g40
g69
tp992
F0.001579778830963665
s(g41
g41
g10
tp993
F0.0015772870662460567
s((I5
g7
I0
tp994
(I5
g7
I0
tp995
(I5
g4
I0
tp996
(I6
g4
I3
tp997
tp998
F0.001579778830963665
s(g501
g499
g500
tp999
F0.0015772870662460567
s(g39
g69
g43
g12
tp1000
F0.001579778830963665
s((I2
g7
I1
tp1001
g345
g474
g743
tp1002
F0.001579778830963665
s(g756
g975
g839
g840
tp1003
F0.001579778830963665
s(g81
g79
g80
tp1004
F0.0015772870662460567
s(g533
(I2
g4
I0
tp1005
g532
tp1006
F0.0015772870662460567
s(g756
g840
tp1007
F0.007874015748031496
s(g114
g531
g551
tp1008
F0.0015772870662460567
s(g622
g221
g513
g512
tp1009
F0.001579778830963665
s(g832
g831
tp1010
F0.0015748031496062992
s(g240
(I5
g4
I0
tp1011
(I3
g2
I1
tp1012
(I3
g2
I1
tp1013
tp1014
F0.001579778830963665
s(g255
(I1
g4
I0
tp1015
g256
tp1016
F0.0015772870662460567
s(g46
g369
g368
g769
tp1017
F0.001579778830963665
s((I5
g4
I0
tp1018
(I7
g2
I1
tp1019
(I6
g4
I0
tp1020
tp1021
F0.0015772870662460567
s(g153
g517
g515
g152
tp1022
F0.001579778830963665
s(g795
(I3
g2
I0
tp1023
g793
g794
tp1024
F0.001579778830963665
s((I3
g129
I0
tp1025
g571
g131
g130
tp1026
F0.001579778830963665
s(g200
g454
tp1027
F0.0015748031496062992
s(g39
g39
g10
tp1028
F0.00946372239747634
s(g91
g628
g629
tp1029
F0.0031545741324921135
s(g39
g40
g109
tp1030
F0.0031545741324921135
s(g263
g934
g933
g262
tp1031
F0.001579778830963665
s(g39
g172
g41
g43
tp1032
F0.00315955766192733
s(g143
(I4
g4
I0
tp1033
(I5
g7
I0
tp1034
g142
tp1035
F0.001579778830963665
s(g10
g122
g69
g40
tp1036
F0.001579778830963665
s(g323
g105
tp1037
F0.0015748031496062992
s(g276
g279
tp1038
F0.0015748031496062992
s(g831
g720
g721
g718
tp1039
F0.001579778830963665
s(g163
g426
g427
g162
tp1040
F0.00315955766192733
s(g64
g64
tp1041
F0.0015748031496062992
s(g40
g40
g69
g41
tp1042
F0.001579778830963665
s(g278
g823
g277
tp1043
F0.0031545741324921135
s((I5
g4
I0
tp1044
g143
g144
g141
tp1045
F0.001579778830963665
s((I7
g2
I0
tp1046
g540
g538
(I3
g4
I2
tp1047
tp1048
F0.001579778830963665
s(g190
g410
g189
tp1049
F0.0015772870662460567
s((I2
g4
I0
tp1050
g700
g749
g748
tp1051
F0.001579778830963665
s(g43
g10
g10
tp1052
F0.0015772870662460567
s(g39
g10
g43
S'11'
p1053
tp1054
F0.00315955766192733
s(g436
(I3
g4
I2
tp1055
g458
tp1056
F0.0015772870662460567
s(g664
g663
tp1057
F0.0015748031496062992
s(g331
(I6
g4
I0
tp1058
(I6
g4
I0
tp1059
g330
tp1060
F0.001579778830963665
s(g40
g10
g43
g12
tp1061
F0.001579778830963665
s(g99
(I5
g4
I0
tp1062
g379
g269
tp1063
F0.001579778830963665
s(g753
g786
g783
g752
tp1064
F0.001579778830963665
s(g681
g679
g680
tp1065
F0.0031545741324921135
s(g862
g194
g192
tp1066
F0.0015772870662460567
s(g795
g793
g794
tp1067
F0.007886435331230283
s(g74
g216
g72
g73
tp1068
F0.001579778830963665
s(g43
g41
g10
g41
tp1069
F0.001579778830963665
s(g111
g85
g83
tp1070
F0.0015772870662460567
s(g748
g749
tp1071
F0.0031496062992125984
s(g858
g296
g297
g294
tp1072
F0.001579778830963665
s(g12
g12
g39
tp1073
F0.0015772870662460567
s(g1020
(I2
g4
I0
tp1074
g1019
tp1075
F0.0015772870662460567
s(g764
g767
tp1076
F0.0031496062992125984
s(g848
g827
g826
tp1077
F0.0015772870662460567
s(g482
g480
g481
tp1078
F0.0015772870662460567
s(g43
g43
g39
tp1079
F0.0031545741324921135
s(g671
g6
g8
g3
tp1080
F0.001579778830963665
s(g43
g12
tp1081
F0.006299212598425197
s(g310
g382
g309
tp1082
F0.0015772870662460567
s(g14
g16
g17
tp1083
F0.0015772870662460567
s(g10
g10
g40
g39
tp1084
F0.004739336492890996
s(g345
g347
g348
tp1085
F0.0015772870662460567
s(g39
g109
tp1086
F0.004724409448818898
s(g17
g15
g16
tp1087
F0.0015772870662460567
s(g364
g362
g363
tp1088
F0.0015772870662460567
s(g12
g39
g69
tp1089
F0.0015772870662460567
s(g41
g39
g122
g43
tp1090
F0.001579778830963665
s(g252
g207
g205
g253
tp1091
F0.001579778830963665
s((I7
g2
I0
tp1092
g81
g78
tp1093
F0.0015772870662460567
s(g267
g312
g266
tp1094
F0.0015772870662460567
s(g413
g415
tp1095
F0.0015748031496062992
s(g161
g427
g162
g163
tp1096
F0.00315955766192733
s(g823
g170
g169
tp1097
F0.0031545741324921135
s((I4
g4
I0
tp1098
(I4
g4
I0
tp1099
(I7
g4
I0
tp1100
(I2
g4
I0
tp1101
tp1102
F0.001579778830963665
s(g10
g40
tp1103
F0.012598425196850394
s(g10
g122
g12
tp1104
F0.0015772870662460567
s(g73
g216
g72
tp1105
F0.0015772870662460567
s(g66
g43
g10
tp1106
F0.0031545741324921135
s(g812
g696
tp1107
F0.0015748031496062992
s(g599
g12
g41
g43
tp1108
F0.001579778830963665
s(g12
g41
tp1109
F0.0031496062992125984
s(g40
g39
g43
tp1110
F0.00946372239747634
s(g12
g43
g10
g43
tp1111
F0.001579778830963665
s(g69
g122
tp1112
F0.006299212598425197
s(g1074
g900
g899
tp1113
F0.0015772870662460567
s(g87
g892
g41
g776
tp1114
F0.001579778830963665
s(g205
g758
g206
g207
tp1115
F0.001579778830963665
s(g943
g396
g214
g213
tp1116
F0.001579778830963665
s(g474
g348
g345
tp1117
F0.0015772870662460567
s(g39
g69
g12
g39
tp1118
F0.001579778830963665
s(g122
g43
tp1119
F0.0015748031496062992
s(g40
g12
g40
tp1120
F0.0015772870662460567
s(g800
g113
g801
tp1121
F0.0015772870662460567
s(g1034
(I4
g2
I0
tp1122
(I2
g7
I1
tp1123
g1033
tp1124
F0.001579778830963665
s(g39
g43
tp1125
F0.01889763779527559
s((I2
g7
I1
tp1126
g341
(I4
g2
I0
tp1127
tp1128
F0.00473186119873817
s(g11
g172
g39
tp1129
F0.0015772870662460567
s(g43
g69
g40
g69
tp1130
F0.00315955766192733
s(g867
g764
g807
g866
tp1131
F0.001579778830963665
s(g757
g840
g756
tp1132
F0.0015772870662460567
s(g93
g96
tp1133
F0.007874015748031496
s(g363
g1098
g362
tp1134
F0.0015772870662460567
s(g780
g440
tp1135
F0.0031496062992125984
s(g10
g41
g43
g599
tp1136
F0.001579778830963665
s(g81
g503
g79
g80
tp1137
F0.001579778830963665
s(g539
g613
tp1138
F0.0031496062992125984
s(g84
g748
g1050
tp1139
F0.0015772870662460567
s(g39
g69
g41
g39
tp1140
F0.001579778830963665
s(g78
g80
g81
tp1141
F0.0015772870662460567
s(g41
g40
g10
g122
tp1142
F0.00631911532385466
s(g39
g12
g41
tp1143
F0.0015772870662460567
s(g863
g194
g192
g862
tp1144
F0.001579778830963665
s(g193
g693
g691
tp1145
F0.0015772870662460567
s(g832
g721
g718
g831
tp1146
F0.001579778830963665
s((I5
g4
I0
tp1147
g261
g466
g577
tp1148
F0.001579778830963665
s(g962
g542
g606
tp1149
F0.0015772870662460567
s(g39
g12
tp1150
F0.009448818897637795
s(g69
g10
g172
g39
tp1151
F0.001579778830963665
s(g172
g12
g41
g172
tp1152
F0.001579778830963665
s(g563
g490
g562
tp1153
F0.0015772870662460567
s(g728
g726
g727
tp1154
F0.0015772870662460567
s(g979
g322
tp1155
F0.0031496062992125984
s(g12
g41
g219
tp1156
F0.0031545741324921135
s(g172
g122
g43
g10
tp1157
F0.00315955766192733
s(g930
g61
g62
g60
tp1158
F0.001579778830963665
s(g631
(I3
g4
I0
tp1159
(I6
g4
I0
tp1160
tp1161
F0.0015772870662460567
s(g563
g562
tp1162
F0.0015748031496062992
s(g866
g767
g764
g807
tp1163
F0.001579778830963665
s(g716
g715
tp1164
F0.0015748031496062992
s(g103
g979
g978
(I6
g7
I0
tp1165
tp1166
F0.001579778830963665
s(g69
g69
g41
g39
tp1167
F0.004739336492890996
s(g1074
g687
g900
g899
tp1168
F0.001579778830963665
s(g133
g266
g267
g134
tp1169
F0.001579778830963665
s(g162
g427
tp1170
F0.006299212598425197
s(g40
g69
g39
tp1171
F0.0015772870662460567
s(g910
g126
g127
g124
tp1172
F0.001579778830963665
s(g393
g69
g69
tp1173
F0.006309148264984227
s(g1047
g538
tp1174
F0.0015748031496062992
s(g586
g40
g43
tp1175
F0.0015772870662460567
s(g40
g76
g40
g40
tp1176
F0.001579778830963665
s(g39
g39
g10
g172
tp1177
F0.001579778830963665
s(g424
(I6
g4
I0
tp1178
tp1179
F0.0015748031496062992
s(g43
g122
tp1180
F0.006299212598425197
s(g316
g314
g315
tp1181
F0.007886435331230283
s(g69
g172
g39
g156
tp1182
F0.001579778830963665
s((I5
g129
I1
tp1183
g555
g643
g956
tp1184
F0.001579778830963665
s(g627
(I7
g2
I0
tp1185
(I7
g2
I0
tp1186
(I1
g4
I0
tp1187
tp1188
F0.00315955766192733
s(g39
g39
g39
g69
tp1189
F0.00315955766192733
s(g515
g517
tp1190
F0.004724409448818898
s((I5
g4
I0
tp1191
g897
g894
tp1192
F0.0015772870662460567
s(g225
g139
g136
g226
tp1193
F0.00315955766192733
s(g875
(I4
g4
I0
tp1194
(I4
g4
I0
tp1195
g874
tp1196
F0.001579778830963665
s(g139
g751
g137
g138
tp1197
F0.001579778830963665
s(g43
g40
g43
g12
tp1198
F0.001579778830963665
s(g90
g628
g629
g91
tp1199
F0.00315955766192733
s(g477
g239
g624
g625
tp1200
F0.001579778830963665
s(g781
g440
g780
tp1201
F0.0031545741324921135
s(g886
g1018
tp1202
F0.0015748031496062992
s(g735
g866
g867
g865
tp1203
F0.00315955766192733
s(g1160
g800
g1159
tp1204
F0.0015772870662460567
s(g525
g403
tp1205
F0.0015748031496062992
s(g226
g138
g139
g136
tp1206
F0.001579778830963665
s(g41
g39
g39
g39
tp1207
F0.001579778830963665
s(g12
g394
g69
g10
tp1208
F0.001579778830963665
s(g595
g951
g594
tp1209
F0.0031545741324921135
s((I5
g4
I3
tp1210
g52
g50
(I4
g7
I0
tp1211
tp1212
F0.001579778830963665
s(g41
g122
g43
tp1213
F0.0015772870662460567
s(g39
g10
g41
tp1214
F0.00473186119873817
s((I4
g7
I0
tp1215
g226
g225
tp1216
F0.0031545741324921135
s(g17
g596
g15
g16
tp1217
F0.001579778830963665
s(g830
g718
g831
g832
tp1218
F0.001579778830963665
s(g40
g43
g586
tp1219
F0.006309148264984227
s(g10
g41
g39
g43
tp1220
F0.001579778830963665
s(g700
(I6
g2
I1
tp1221
g701
tp1222
F0.0015772870662460567
s(g41
g39
g39
g40
tp1223
F0.00315955766192733
s(g69
g776
g87
g88
tp1224
F0.001579778830963665
s(g43
g43
g10
g39
tp1225
F0.00631911532385466
s(g122
g122
g69
g40
tp1226
F0.00315955766192733
s(g10
g41
g69
g43
tp1227
F0.001579778830963665
s(g122
g39
g12
tp1228
F0.0015772870662460567
s(g406
g887
g404
g405
tp1229
F0.001579778830963665
s(g463
g133
tp1230
F0.004724409448818898
s(g40
g40
g960
g69
tp1231
F0.00315955766192733
s(g271
g181
g182
g179
tp1232
F0.001579778830963665
s(g69
g39
g43
tp1233
F0.0031545741324921135
s(g39
g40
g41
tp1234
F0.00473186119873817
s((I2
g4
I3
tp1235
g463
g462
tp1236
F0.0015772870662460567
s(g253
g205
tp1237
F0.006299212598425197
s(g507
g356
g354
tp1238
F0.0015772870662460567
s(g138
g753
g751
g137
tp1239
F0.001579778830963665
s(g40
g40
g39
tp1240
F0.00473186119873817
s(g40
g122
tp1241
F0.004724409448818898
s(g39
g43
g122
g39
tp1242
F0.001579778830963665
s(g41
g39
g43
g69
tp1243
F0.001579778830963665
s(g492
g81
g78
g1092
tp1244
F0.001579778830963665
s(g10
g43
g599
tp1245
F0.0015772870662460567
s(g342
(I4
g4
I0
tp1246
(I4
g4
I0
tp1247
(I2
g7
I1
tp1248
tp1249
F0.001579778830963665
s(g513
g222
g223
g221
tp1250
F0.001579778830963665
s(g12
g69
g43
tp1251
F0.0015772870662460567
s(g1020
g1019
tp1252
F0.0015748031496062992
s(g57
g663
g664
tp1253
F0.0015772870662460567
s(g1011
g858
g400
g399
tp1254
F0.001579778830963665
s(g105
g107
tp1255
F0.0015748031496062992
s(g40
g40
g43
g586
tp1256
F0.001579778830963665
s(g1211
g52
g50
tp1257
F0.0015772870662460567
s(g591
g39
g39
tp1258
F0.00473186119873817
s(g39
g122
g43
g10
tp1259
F0.001579778830963665
s(g12
g69
g40
g43
tp1260
F0.001579778830963665
s(g900
g688
g689
g687
tp1261
F0.001579778830963665
s(g172
g43
g39
g10
tp1262
F0.001579778830963665
s(g363
g1101
g1098
g362
tp1263
F0.001579778830963665
s(g620
g481
g482
g479
tp1264
F0.001579778830963665
s(g41
g43
g40
tp1265
F0.0015772870662460567
s(g41
g12
g12
tp1266
F0.00473186119873817
s(g120
g32
tp1267
F0.0015748031496062992
s(g858
g294
tp1268
F0.0015748031496062992
s(g40
g69
S'10'
p1269
S'10'
p1270
tp1271
F0.001579778830963665
s(g929
g60
g930
g931
tp1272
F0.001579778830963665
s(g40
g12
g40
g122
tp1273
F0.001579778830963665
s(g1100
g83
g111
g1099
tp1274
F0.001579778830963665
s(g69
g43
tp1275
F0.0031496062992125984
s(g454
g479
g620
g453
tp1276
F0.001579778830963665
s((I4
g4
I0
tp1277
g1210
(I4
g7
I0
tp1278
tp1279
F0.0015772870662460567
s(g12
g39
tp1280
F0.012598425196850394
s((I6
g4
I0
tp1281
g929
(I6
g4
I0
tp1282
(I6
g4
I0
tp1283
tp1284
F0.00315955766192733
s(g403
g405
g406
tp1285
F0.0015772870662460567
s(g781
g780
tp1286
F0.0031496062992125984
s((I2
g4
I0
tp1287
g229
g230
g228
tp1288
F0.001579778830963665
s(g69
g39
g39
g69
tp1289
F0.004739336492890996
s((I5
g4
I0
tp1290
g863
g861
tp1291
F0.011041009463722398
s(g673
g671
g672
tp1292
F0.00473186119873817
s(g772
g276
tp1293
F0.0031496062992125984
s(g862
g192
tp1294
F0.004724409448818898
s(g69
g39
g39
tp1295
F0.007886435331230283
s(g499
g577
g1147
(I5
g4
I0
tp1296
tp1297
F0.001579778830963665
s(g40
g39
g41
g41
tp1298
F0.001579778830963665
s(g865
g867
tp1299
F0.0031496062992125984
s(g362
g1101
g1098
tp1300
F0.0015772870662460567
s(g542
g500
g501
g498
tp1301
F0.001579778830963665
s(g356
g363
g364
g355
tp1302
F0.001579778830963665
s(g914
g604
g601
g913
tp1303
F0.001579778830963665
s(g43
g10
g39
g122
tp1304
F0.001579778830963665
s(g10
g39
g39
tp1305
F0.007886435331230283
s(g337
g880
g335
g336
tp1306
F0.001579778830963665
s(g12
g39
g39
tp1307
F0.0031545741324921135
s(g405
g887
g404
tp1308
F0.0031545741324921135
s(g166
g23
g22
tp1309
F0.0015772870662460567
s(g960
g592
g40
tp1310
F0.0031545741324921135
s(g41
g10
g12
tp1311
F0.0015772870662460567
s((I2
g4
I0
tp1312
g306
g303
tp1313
F0.0015772870662460567
s(g87
g41
g776
tp1314
F0.0015772870662460567
s(g316
g315
tp1315
F0.012598425196850394
s(g635
g352
g351
g389
tp1316
F0.001579778830963665
s(g131
g571
tp1317
F0.0015748031496062992
s(g284
g58
g56
g283
tp1318
F0.001579778830963665
s(g913
g603
g604
g601
tp1319
F0.001579778830963665
s(g300
g228
g1287
tp1320
F0.0031545741324921135
s(g12
g40
g39
tp1321
F0.0015772870662460567
s(g306
g903
g304
g305
tp1322
F0.001579778830963665
s(g12
g10
g172
g10
tp1323
F0.001579778830963665
s(g12
g69
g10
tp1324
F0.0031545741324921135
s(g120
g33
g32
tp1325
F0.0015772870662460567
s(g735
g867
g865
tp1326
F0.0031545741324921135
s(g394
g69
g393
tp1327
F0.0031545741324921135
s(g229
g713
tp1328
F0.0031496062992125984
s(g899
g687
g900
tp1329
F0.0015772870662460567
s(g10
g172
g10
g12
tp1330
F0.001579778830963665
s((I6
g4
I0
tp1331
g71
(I7
g4
I3
tp1332
(I6
g7
I0
tp1333
tp1334
F0.001579778830963665
s(g458
g1047
g1046
g1055
tp1335
F0.001579778830963665
s(g685
g487
g486
g684
tp1336
F0.001579778830963665
s(g122
g122
g12
g40
tp1337
F0.001579778830963665
s(g606
g542
tp1338
F0.0031496062992125984
s(g594
g93
g950
g951
tp1339
F0.001579778830963665
s(g516
g462
g1235
tp1340
F0.0015772870662460567
s(g1332
g73
g74
g71
tp1341
F0.001579778830963665
s(g405
g886
g887
g404
tp1342
F0.001579778830963665
s(g774
g773
tp1343
F0.0031496062992125984
s(g793
g645
g816
g1023
tp1344
F0.001579778830963665
s(g692
g19
tp1345
F0.025196850393700787
s(g267
g266
tp1346
F0.0031496062992125984
s(g931
g62
g60
g930
tp1347
F0.001579778830963665
s(g249
(I5
g129
I1
tp1348
g377
tp1349
F0.0015772870662460567
s(g39
g66
g39
g39
tp1350
F0.00315955766192733
s(g39
g40
g69
g43
tp1351
F0.001579778830963665
s(g663
g668
tp1352
F0.0015748031496062992
s(g39
g10
g172
tp1353
F0.007886435331230283
s(g43
g10
g122
tp1354
F0.0015772870662460567
s(g714
g189
g190
g188
tp1355
F0.001579778830963665
s(g697
g334
tp1356
F0.0015748031496062992
s(g165
g166
g167
tp1357
F0.0015772870662460567
s(g1278
g1211
g1210
tp1358
F0.0015772870662460567
s(g10
g69
g69
g69
tp1359
F0.001579778830963665
s(g48
g46
g47
tp1360
F0.00473186119873817
s(g71
g73
g74
tp1361
F0.0015772870662460567
s(g404
g1018
g886
g887
tp1362
F0.001579778830963665
s(g253
g207
g205
tp1363
F0.00473186119873817
s(g628
g1186
g1187
g627
tp1364
F0.00315955766192733
s(g10
g40
g39
g40
tp1365
F0.004739336492890996
s(g12
g172
g39
g11
tp1366
F0.001579778830963665
s(g180
g636
g637
tp1367
F0.0015772870662460567
s(g1055
g538
g1047
g1046
tp1368
F0.001579778830963665
s(g69
g41
g39
tp1369
F0.00473186119873817
s(g643
g555
tp1370
F0.0031496062992125984
s(g1282
g931
g929
tp1371
F0.0015772870662460567
s(g326
(I3
g129
I0
tp1372
(I3
g129
I0
tp1373
tp1374
F0.0015772870662460567
s(g676
g41
g43
tp1375
F0.007886435331230283
s(g413
g633
g414
g415
tp1376
F0.001579778830963665
s(g199
g454
g200
tp1377
F0.0015772870662460567
s(g20
g660
g973
g211
tp1378
F0.001579778830963665
s(g434
g629
g91
g90
tp1379
F0.00315955766192733
s(g154
g152
g153
tp1380
F0.0015772870662460567
s(g40
g39
g10
tp1381
F0.00473186119873817
s(g613
(I5
g4
I0
tp1382
(I5
g4
I0
tp1383
g614
tp1384
F0.001579778830963665
s(g147
g1215
g986
g443
tp1385
F0.001579778830963665
s(g69
g39
g39
g40
tp1386
F0.00315955766192733
s(g297
g296
tp1387
F0.0015748031496062992
s(g41
g122
g40
g40
tp1388
F0.00315955766192733
s(g40
g43
g12
tp1389
F0.0015772870662460567
s(g41
g12
g41
g69
tp1390
F0.00315955766192733
s(g12
g40
g10
tp1391
F0.0015772870662460567
s(g555
g468
tp1392
F0.014173228346456693
s(g39
g12
g10
tp1393
F0.0031545741324921135
s(g715
g188
g714
tp1394
F0.0015772870662460567
s(g424
g1331
(I6
g4
I0
tp1395
g1178
tp1396
F0.001579778830963665
s(g122
g10
g39
tp1397
F0.0015772870662460567
s(g10
g39
g43
g40
tp1398
F0.001579778830963665
s(g581
g25
tp1399
F0.0015748031496062992
s(g319
g320
tp1400
F0.0015748031496062992
s(g303
g305
g306
tp1401
F0.0015772870662460567
s(g246
g245
tp1402
F0.0015748031496062992
s(g107
g250
g248
g106
tp1403
F0.001579778830963665
s(g43
g12
g10
g122
tp1404
F0.001579778830963665
s(g753
g752
tp1405
F0.0031496062992125984
s(g143
g1034
g142
tp1406
F0.0015772870662460567
s(g894
g896
g897
tp1407
F0.0015772870662460567
s(g250
g1348
g377
g249
tp1408
F0.001579778830963665
s(g12
g40
tp1409
F0.0015748031496062992
s(g693
g692
tp1410
F0.009448818897637795
s(g43
g40
g69
tp1411
F0.00473186119873817
s(g635
g351
g389
tp1412
F0.0015772870662460567
s(g43
g43
g12
tp1413
F0.0031545741324921135
s(g296
g258
g295
tp1414
F0.0015772870662460567
s(g239
g1013
g240
g241
tp1415
F0.001579778830963665
s(g137
g753
g751
tp1416
F0.0015772870662460567
s(g148
g986
g443
g147
tp1417
F0.001579778830963665
s(g182
g637
g180
g181
tp1418
F0.001579778830963665
s(g122
g746
tp1419
F0.0015748031496062992
s(g315
g779
(I4
g7
I1
tp1420
g314
tp1421
F0.00315955766192733
s(g207
g757
g758
g206
tp1422
F0.001579778830963665
s(g468
g158
tp1423
F0.004724409448818898
s(g258
g200
g199
g259
tp1424
F0.001579778830963665
s(g766
(I5
g7
I0
tp1425
g765
tp1426
F0.0015772870662460567
s(g40
g39
g39
g39
tp1427
F0.007898894154818325
s((I1
g4
I2
tp1428
g894
g1191
tp1429
F0.0015772870662460567
s(g468
g159
g158
tp1430
F0.0031545741324921135
s(g39
g10
g66
g39
tp1431
F0.00315955766192733
s(g757
g756
tp1432
F0.0015748031496062992
s(g41
g39
g12
tp1433
F0.007886435331230283
s(g1023
g645
g816
tp1434
F0.0015772870662460567
s(g636
g389
g635
tp1435
F0.0015772870662460567
s(g185
g1191
g1428
tp1436
F0.0015772870662460567
s(g39
g43
g39
g43
tp1437
F0.00315955766192733
s(g389
g351
tp1438
F0.0015748031496062992
s(g668
g512
g622
g667
tp1439
F0.001579778830963665
s(g331
g1059
g330
tp1440
F0.0015772870662460567
s(g786
(I4
g4
I0
tp1441
g784
g785
tp1442
F0.001579778830963665
s(g39
g109
g39
tp1443
F0.00473186119873817
s(g39
g43
g12
g10
tp1444
F0.001579778830963665
s(g267
g236
g312
g266
tp1445
F0.001579778830963665
s(g69
g360
g69
g69
tp1446
F0.00315955766192733
s((I3
g129
I0
tp1447
g131
g130
g1025
tp1448
F0.00631911532385466
s(g840
g329
g975
g839
tp1449
F0.001579778830963665
s(g903
(I3
g2
I0
tp1450
(I4
g4
I3
tp1451
g902
tp1452
F0.001579778830963665
s((I2
g7
I1
tp1453
g735
g736
g734
tp1454
F0.001579778830963665
s(g221
g223
tp1455
F0.0015748031496062992
s(g713
g715
g716
tp1456
F0.0015772870662460567
s(g399
g294
g858
g400
tp1457
F0.001579778830963665
s(g172
S'11'
p1458
tp1459
F0.0015748031496062992
s(g131
g914
g570
g571
tp1460
F0.001579778830963665
s(g10
g10
g122
g43
tp1461
F0.001579778830963665
s(g453
g620
tp1462
F0.0015748031496062992
s(g517
g516
tp1463
F0.006299212598425197
s(g39
g39
g43
g39
tp1464
F0.00315955766192733
s(g69
g1270
g40
tp1465
F0.0015772870662460567
s(g41
g69
g39
g39
tp1466
F0.00315955766192733
s(g1053
g10
g43
tp1467
F0.0031545741324921135
s(g39
g39
g39
g39
tp1468
F0.0789889415481832
s(g12
g11
tp1469
F0.0015748031496062992
s(g1165
g978
tp1470
F0.0031496062992125984
s(g279
g277
g278
tp1471
F0.0031545741324921135
s(g236
g32
g120
tp1472
F0.0015772870662460567
s(g76
g10
g12
g43
tp1473
F0.001579778830963665
s(g508
g354
g507
tp1474
F0.0015772870662460567
s(g219
g41
tp1475
F0.004724409448818898
s((I7
g4
I0
tp1476
g529
(I4
g4
I0
tp1477
tp1478
F0.0015772870662460567
s(g668
g667
tp1479
F0.0015748031496062992
s(g12
g12
g10
g122
tp1480
F0.001579778830963665
s(g676
g43
tp1481
F0.01889763779527559
s(g141
g143
g144
tp1482
F0.0015772870662460567
s(g172
g39
g1458
tp1483
F0.0015772870662460567
s(g181
g636
g637
g180
tp1484
F0.001579778830963665
s(g304
g902
g903
tp1485
F0.0015772870662460567
s(g43
g39
g39
tp1486
F0.007886435331230283
s(g1092
g80
g81
g78
tp1487
F0.001579778830963665
s(g925
g831
g832
g830
tp1488
F0.001579778830963665
s(g749
g701
g700
tp1489
F0.0015772870662460567
s(g624
g240
g241
g239
tp1490
F0.001579778830963665
s((I5
g7
I0
tp1491
g141
g1044
(I5
g4
I0
tp1492
tp1493
F0.00315955766192733
s(g41
g12
g122
tp1494
F0.0015772870662460567
s(g300
g230
g228
g1287
tp1495
F0.001579778830963665
s(g1047
g540
g538
tp1496
F0.0015772870662460567
s(g41
g69
g69
tp1497
F0.0031545741324921135
s(g394
g69
g69
g393
tp1498
F0.00315955766192733
s(g211
g973
tp1499
F0.004724409448818898
s(g43
g10
g41
tp1500
F0.0015772870662460567
s(g540
g539
tp1501
F0.0015748031496062992
s(g193
g692
g693
g691
tp1502
F0.001579778830963665
s(g973
g154
g151
g660
tp1503
F0.001579778830963665
s(g312
g120
g236
tp1504
F0.0015772870662460567
s(g631
g800
g1159
g1160
tp1505
F0.001579778830963665
s(g15
g596
tp1506
F0.0015748031496062992
s(g785
g1277
g1441
g784
tp1507
F0.001579778830963665
s(g30
g271
tp1508
F0.006299212598425197
s(g207
g206
tp1509
F0.0031496062992125984
s(g295
g259
g258
tp1510
F0.0015772870662460567
s(g493
g78
g1092
g492
tp1511
F0.001579778830963665
s(g687
g875
g688
g689
tp1512
F0.001579778830963665
s(g250
g249
tp1513
F0.0015748031496062992
s(g632
g1160
g631
tp1514
F0.0015772870662460567
s(g16
g596
g15
tp1515
F0.0015772870662460567
s((I4
g4
I3
tp1516
g127
g124
g910
tp1517
F0.001579778830963665
s(g672
g8
g3
g671
tp1518
F0.004739336492890996
s(g39
g43
g10
g41
tp1519
F0.00315955766192733
s((I6
g4
I0
tp1520
g1282
g1283
g1281
tp1521
F0.00631911532385466
s(g645
g374
g371
tp1522
F0.0015772870662460567
s(g10
g172
g41
g43
tp1523
F0.001579778830963665
s(g295
g199
g259
g258
tp1524
F0.001579778830963665
s(g994
g996
g997
tp1525
F0.0031545741324921135
s(g39
g43
g12
g43
tp1526
F0.00315955766192733
s(g12
g69
g39
tp1527
F0.00473186119873817
s(g997
g995
g996
tp1528
F0.0015772870662460567
s(S'10'
p1529
g64
g39
tp1530
F0.0031545741324921135
s(g716
g714
g715
tp1531
F0.0015772870662460567
s((I4
g2
I0
tp1532
g812
g811
tp1533
F0.0015772870662460567
s(g369
g256
g255
tp1534
F0.0015772870662460567
s(g39
g43
g40
tp1535
F0.006309148264984227
s(g671
g8
g3
tp1536
F0.006309148264984227
s(g794
g1023
g793
tp1537
F0.00946372239747634
s(g570
g601
g913
g914
tp1538
F0.001579778830963665
s(g115
g531
g551
g114
tp1539
F0.001579778830963665
s(g166
(I3
g4
I0
tp1540
g23
g22
tp1541
F0.001579778830963665
s(g410
g409
tp1542
F0.0015748031496062992
s(g672
g3
g671
tp1543
F0.00473186119873817
s((I6
g4
I3
tp1544
(I5
g4
I0
tp1545
(I5
g4
I0
tp1546
tp1547
F0.0015772870662460567
s(g726
g306
g303
g1312
tp1548
F0.001579778830963665
s(g10
g43
g69
g41
tp1549
F0.001579778830963665
s(g156
g10
g172
g39
tp1550
F0.001579778830963665
s(g184
g1428
g185
g186
tp1551
F0.001579778830963665
s(S'11'
p1552
g39
g43
g10
tp1553
F0.001579778830963665
s(g41
g39
g43
g10
tp1554
F0.001579778830963665
s(g995
g610
g608
(I4
g4
I0
tp1555
tp1556
F0.001579778830963665
s(g39
g10
g66
tp1557
F0.0031545741324921135
s(g172
g43
g10
tp1558
F0.0031545741324921135
s(g41
g39
g39
g122
tp1559
F0.001579778830963665
s(g39
g39
g12
g41
tp1560
F0.001579778830963665
s(g1186
(I7
g2
I0
tp1561
g1185
tp1562
F0.00473186119873817
s(g225
g136
g226
tp1563
F0.0031545741324921135
s(g581
g27
g25
tp1564
F0.0015772870662460567
s(g418
g30
g29
tp1565
F0.0015772870662460567
s(g41
g41
g172
tp1566
F0.0031545741324921135
s(g149
g148
tp1567
F0.0031496062992125984
s(g718
g720
g721
tp1568
F0.0015772870662460567
s(g40
g12
tp1569
F0.0031496062992125984
s(g503
(I7
g4
I0
tp1570
g504
g505
tp1571
F0.001579778830963665
s(g1159
g800
tp1572
F0.0031496062992125984
s(g12
g40
g41
tp1573
F0.0031545741324921135
s(g40
g40
g40
tp1574
F0.0015772870662460567
s(g40
g69
g41
tp1575
F0.0015772870662460567
s(g41
g40
g69
tp1576
F0.0031545741324921135
s(g481
g494
g480
tp1577
F0.0031545741324921135
s(g151
g154
tp1578
F0.0031496062992125984
s(g10
g172
g12
tp1579
F0.0015772870662460567
s(g122
g43
g10
g39
tp1580
F0.001579778830963665
s(g622
g512
tp1581
F0.0015748031496062992
s(g1185
g1561
tp1582
F0.009448818897637795
s(g40
g122
g69
tp1583
F0.00473186119873817
s(g863
g862
tp1584
F0.01732283464566929
s(g481
g480
tp1585
F0.0031496062992125984
s(g773
g279
g276
g772
tp1586
F0.001579778830963665
s(g471
g284
g282
tp1587
F0.0015772870662460567
s(g531
g1005
g532
g533
tp1588
F0.001579778830963665
s(g41
g43
S'11'
p1589
g39
tp1590
F0.001579778830963665
s(g764
g766
g767
tp1591
F0.0031545741324921135
s(g41
g172
g172
tp1592
F0.0015772870662460567
s(g769
g255
g369
g368
tp1593
F0.001579778830963665
s(g369
g1015
g256
g255
tp1594
F0.001579778830963665
s(g894
g897
tp1595
F0.0015748031496062992
s(g172
g12
g12
g41
tp1596
F0.001579778830963665
s(g323
g107
g105
tp1597
F0.0015772870662460567
s(g641
g606
g962
tp1598
F0.0015772870662460567
s(g562
g37
g35
g490
tp1599
F0.001579778830963665
s(g167
g23
g22
g166
tp1600
F0.001579778830963665
s(g43
g43
g41
tp1601
F0.0015772870662460567
s(g85
g748
g1050
g84
tp1602
F0.001579778830963665
s(g516
g1235
tp1603
F0.0031496062992125984
s(g471
g282
tp1604
F0.0031496062992125984
s(g1278
g1210
tp1605
F0.0015748031496062992
s(g12
g12
tp1606
F0.004724409448818898
s(g40
g10
g43
tp1607
F0.0031545741324921135
s(g283
g57
g58
g56
tp1608
F0.001579778830963665
s(g1099
g85
g83
g111
tp1609
F0.001579778830963665
s(g301
g300
tp1610
F0.0015748031496062992
s(g10
g43
g40
tp1611
F0.0031545741324921135
s(g610
g1516
g835
g609
tp1612
F0.001579778830963665
s(g43
g41
g10
tp1613
F0.0015772870662460567
s(g627
g1187
tp1614
F0.006299212598425197
s(g142
g1123
g1033
g1034
tp1615
F0.001579778830963665
s(g45
g47
g48
tp1616
F0.0015772870662460567
s(g43
g39
g122
tp1617
F0.00473186119873817
s(g512
g221
g513
tp1618
F0.0015772870662460567
s(g875
g1195
g874
tp1619
F0.0015772870662460567
s(g887
g886
tp1620
F0.0015748031496062992
s(g1296
g466
g577
g1147
tp1621
F0.001579778830963665
s(g39
g69
g39
tp1622
F0.00473186119873817
s(g505
g1570
g504
tp1623
F0.0015772870662460567
s(g43
g40
g69
g43
tp1624
F0.00315955766192733
s(g1001
g474
g743
tp1625
F0.0015772870662460567
s(g139
g138
tp1626
F0.0031496062992125984
s(g84
g749
g748
g1050
tp1627
F0.001579778830963665
s(g494
g492
g493
tp1628
F0.0015772870662460567
s(g144
g143
tp1629
F0.0015748031496062992
s(g951
g96
g93
g950
tp1630
F0.007898894154818325
s(g12
g172
g39
g69
tp1631
F0.001579778830963665
s(g629
g1187
g627
g628
tp1632
F0.00315955766192733
s(g861
g192
g862
g863
tp1633
F0.001579778830963665
s(g896
g423
g895
tp1634
F0.0015772870662460567
s(g656
g433
g655
tp1635
F0.0031545741324921135
s(g926
g832
g830
g925
tp1636
F0.001579778830963665
s(g557
g39
g43
tp1637
F0.007886435331230283
s(g618
g319
g523
g522
tp1638
F0.001579778830963665
s(g624
g241
g239
tp1639
F0.0015772870662460567
s(g143
g142
tp1640
F0.0031496062992125984
s(g12
g43
tp1641
F0.009448818897637795
s(g10
g39
g122
g41
tp1642
F0.001579778830963665
s(g848
(I3
g2
I0
tp1643
g827
g826
tp1644
F0.001579778830963665
s(g12
g40
g43
tp1645
F0.0015772870662460567
s((I5
g4
I0
tp1646
g1044
g1492
g1491
tp1647
F0.00315955766192733
s(g241
g240
tp1648
F0.0015748031496062992
s(g625
g624
tp1649
F0.0015748031496062992
s(g685
g486
g684
tp1650
F0.0015772870662460567
s(g40
g40
g41
g39
tp1651
F0.00315955766192733
s(g39
g41
g69
tp1652
F0.00473186119873817
s(g40
g41
g39
g43
tp1653
F0.001579778830963665
s(g539
g1383
g614
g613
tp1654
F0.001579778830963665
s(g635
g389
tp1655
F0.004724409448818898
s(g172
g39
g12
g10
tp1656
F0.001579778830963665
s(g312
g236
tp1657
F0.0015748031496062992
s(S'10'
p1658
g10
g64
g39
tp1659
F0.001579778830963665
s(g305
g903
g304
tp1660
F0.0015772870662460567
s(g43
g87
g88
g69
tp1661
F0.001579778830963665
s(g39
g39
g39
tp1662
F0.11041009463722405
s(g542
g501
g498
tp1663
F0.0015772870662460567
s(g751
g783
g752
g753
tp1664
F0.00315955766192733
s(g99
g269
tp1665
F0.0015748031496062992
s(g613
g1383
g614
tp1666
F0.0015772870662460567
s(g322
g105
g323
tp1667
F0.0015772870662460567
s(g1545
g996
g997
g994
tp1668
F0.00315955766192733
s(g356
g364
g355
tp1669
F0.0015772870662460567
s(g185
g1428
tp1670
F0.0015748031496062992
s(g83
g1050
g84
g85
tp1671
F0.001579778830963665
s(g115
g551
g114
tp1672
F0.0031545741324921135
s(g12
g39
g917
tp1673
F0.0015772870662460567
s(g207
g758
g206
tp1674
F0.0015772870662460567
s(g490
g36
g37
g35
tp1675
F0.001579778830963665
s(g423
g1178
g424
tp1676
F0.0015772870662460567
s(g41
g41
tp1677
F0.0015748031496062992
s(g85
g1050
g84
tp1678
F0.0015772870662460567
s(g252
g205
g253
tp1679
F0.0015772870662460567
s(g217
g477
g176
g175
tp1680
F0.001579778830963665
s(g233
g474
g743
g1001
tp1681
F0.001579778830963665
s(g39
g39
g69
g12
tp1682
F0.001579778830963665
s(g36
g458
g436
tp1683
F0.0015772870662460567
s(g221
g451
g222
g223
tp1684
F0.001579778830963665
s(g69
g40
g960
tp1685
F0.00473186119873817
s(g39
g39
tp1686
F0.16377952755905478
s(g39
g172
g10
tp1687
F0.0015772870662460567
s(g735
g865
tp1688
F0.0031496062992125984
s(g223
g222
tp1689
F0.0015748031496062992
s(g1283
g929
g1282
tp1690
F0.0031545741324921135
s(g61
g99
g100
g98
tp1691
F0.001579778830963665
s(g33
g1165
g103
g102
tp1692
F0.001579778830963665
s(g69
g360
g69
tp1693
F0.0031545741324921135
s(g88
g87
tp1694
F0.0015748031496062992
s(g90
g629
g91
tp1695
F0.0031545741324921135
s(g41
g12
tp1696
F0.014173228346456693
s(g29
g271
g30
tp1697
F0.0015772870662460567
s(g364
g1098
g362
g363
tp1698
F0.001579778830963665
s(g43
g41
g172
g41
tp1699
F0.00315955766192733
s(g39
g69
g43
g39
tp1700
F0.00315955766192733
s(g1015
g252
tp1701
F0.0015748031496062992
s(g866
g764
g807
tp1702
F0.0015772870662460567
s(g40
g40
g69
g39
tp1703
F0.001579778830963665
s(g284
g283
tp1704
F0.006299212598425197
s(g1221
g197
g196
tp1705
F0.0015772870662460567
s(g37
g36
tp1706
F0.0015748031496062992
s(g37
g436
g36
tp1707
F0.0015772870662460567
s(g606
g498
g542
tp1708
F0.0015772870662460567
s(g72
g217
g216
tp1709
F0.0015772870662460567
s(g315
g1420
g314
tp1710
F0.0031545741324921135
s(g69
g39
g40
tp1711
F0.011041009463722398
s(g241
g1012
g1013
g240
tp1712
F0.001579778830963665
s(g326
(I3
g129
I0
tp1713
g1372
g1373
tp1714
F0.001579778830963665
s(g98
g269
g99
g100
tp1715
F0.001579778830963665
s(g533
g870
g1005
g532
tp1716
F0.001579778830963665
s(g727
g1312
g726
tp1717
F0.0015772870662460567
s(g122
g12
tp1718
F0.0015748031496062992
s(g978
g323
g322
g979
tp1719
F0.001579778830963665
s((I7
g2
I0
tp1720
g300
g301
g299
tp1721
F0.001579778830963665
s(g667
g512
g622
tp1722
F0.0015772870662460567
s(g176
g624
g625
g477
tp1723
F0.001579778830963665
s(g10
g40
g12
tp1724
F0.0015772870662460567
s(g736
g865
g735
tp1725
F0.0031545741324921135
s(g596
g594
g595
tp1726
F0.0015772870662460567
s(g714
g190
g188
tp1727
F0.0015772870662460567
s(g43
g43
tp1728
F0.004724409448818898
s(g200
g453
g454
tp1729
F0.0015772870662460567
s(g56
g58
tp1730
F0.0031496062992125984
s(g419
g30
g29
g418
tp1731
F0.001579778830963665
s(g986
g225
g1215
tp1732
F0.0015772870662460567
s(g41
g122
g39
g39
tp1733
F0.001579778830963665
s(g862
g193
g194
g192
tp1734
F0.001579778830963665
s(g39
g1458
g172
g10
tp1735
F0.001579778830963665
s(g154
g153
tp1736
F0.0015748031496062992
s(g749
g1221
g701
g700
tp1737
F0.001579778830963665
s(g12
g10
g43
tp1738
F0.0015772870662460567
s(g41
g39
tp1739
F0.014173228346456693
s(g69
g41
g41
g40
tp1740
F0.001579778830963665
s(g767
g766
tp1741
F0.0031496062992125984
s(g189
g409
g410
tp1742
F0.0015772870662460567
s(g394
g393
tp1743
F0.007874015748031496
s(g1420
g780
g781
g779
tp1744
F0.00315955766192733
s(g978
g979
tp1745
F0.0015748031496062992
s(g688
g874
g875
tp1746
F0.0015772870662460567
s(g551
g532
g533
g531
tp1747
F0.001579778830963665
s(g10
g39
g43
tp1748
F0.007886435331230283
s(g887
g1018
g886
tp1749
F0.0015772870662460567
s(g43
g172
g39
g40
tp1750
F0.001579778830963665
s(g69
g69
g68
tp1751
F0.0031545741324921135
s(g69
g805
g69
tp1752
F0.0015772870662460567
s(g336
g413
g880
g335
tp1753
F0.001579778830963665
s(g69
g69
g39
g122
tp1754
F0.00315955766192733
s(g69
g960
g69
g40
tp1755
F0.00315955766192733
s(g956
g468
g555
g643
tp1756
F0.001579778830963665
s(g72
g175
g217
g216
tp1757
F0.001579778830963665
s(g172
g172
g39
tp1758
F0.0015772870662460567
s(g41
g39
g39
g12
tp1759
F0.00315955766192733
s(g892
g41
g39
g43
tp1760
F0.001579778830963665
s(g487
g419
g417
tp1761
F0.00473186119873817
s(g1283
g931
g929
g1282
tp1762
F0.001579778830963665
s(g23
g234
g232
g1540
tp1763
F0.001579778830963665
s(g1001
g743
tp1764
F0.0015748031496062992
s(g319
g310
g308
g320
tp1765
F0.001579778830963665
s(g240
g1012
g1013
tp1766
F0.0015772870662460567
s(g43
g41
tp1767
F0.015748031496062992
s(g805
g41
g40
tp1768
F0.0015772870662460567
s(g222
g641
g450
g451
tp1769
F0.001579778830963665
s(g40
g122
g40
tp1770
F0.0031545741324921135
s(g701
g197
g196
g1221
tp1771
F0.001579778830963665
s(g297
g258
g295
g296
tp1772
F0.001579778830963665
s(g697
g337
g334
tp1773
F0.0015772870662460567
s(g678
g680
g681
tp1774
F0.0031545741324921135
s(g1011
g400
g399
tp1775
F0.0015772870662460567
s(g41
g43
g10
tp1776
F0.0031545741324921135
s(g109
g40
g40
tp1777
F0.00473186119873817
s(g40
g172
g39
tp1778
F0.0015772870662460567
s(g39
g40
tp1779
F0.015748031496062992
s(g43
g10
g43
g10
tp1780
F0.001579778830963665
s(g1013
g399
g1011
g1012
tp1781
F0.001579778830963665
s(g69
g39
g156
tp1782
F0.0015772870662460567
s(g43
g69
g41
g10
tp1783
F0.001579778830963665
s(g223
g451
g222
tp1784
F0.0015772870662460567
s(g299
g1287
g300
g301
tp1785
F0.001579778830963665
s(g427
g771
g426
tp1786
F0.0031545741324921135
s(g470
g284
g282
g471
tp1787
F0.001579778830963665
s(g43
g43
g10
tp1788
F0.0031545741324921135
s(g975
g332
g329
tp1789
F0.0015772870662460567
s(g1005
g470
g870
tp1790
F0.0015772870662460567
s(g1098
g1100
g1101
tp1791
F0.0015772870662460567
s(g169
g315
g316
g170
tp1792
F0.004739336492890996
s(g106
g249
g250
g248
tp1793
F0.001579778830963665
s(g1492
g144
g141
g1044
tp1794
F0.004739336492890996
s(g41
g39
g40
tp1795
F0.0031545741324921135
s(g352
g45
g390
tp1796
F0.00473186119873817
s(g284
g56
g283
tp1797
F0.0015772870662460567
s(g175
g477
g176
tp1798
F0.0015772870662460567
s(g1529
g64
g64
g39
tp1799
F0.001579778830963665
s(g903
g1451
g902
tp1800
F0.0015772870662460567
s(g500
g1296
g499
tp1801
F0.0015772870662460567
s(g10
g39
g40
tp1802
F0.006309148264984227
s(g22
g232
g1540
g23
tp1803
F0.001579778830963665
s(g20
g211
tp1804
F0.0031496062992125984
s(g152
g515
tp1805
F0.0015748031496062992
s((I4
g4
I0
tp1806
g341
g1127
g1126
tp1807
F0.004739336492890996
s(g910
g127
g124
tp1808
F0.0015772870662460567
s(g779
g780
g781
tp1809
F0.0031545741324921135
s(g39
g172
tp1810
F0.007874015748031496
s(g454
g620
g453
tp1811
F0.0015772870662460567
s(g144
g142
g143
tp1812
F0.0015772870662460567
s(g382
g490
g562
g563
tp1813
F0.001579778830963665
s(g122
g40
g122
g40
tp1814
F0.001579778830963665
s(g1282
g930
g931
g929
tp1815
F0.001579778830963665
s(g137
g752
g753
g751
tp1816
F0.001579778830963665
s(g12
g172
g69
tp1817
F0.0015772870662460567
s(g943
g214
g213
tp1818
F0.0015772870662460567
s(g769
g368
tp1819
F0.0015748031496062992
s(g69
g393
g394
tp1820
F0.0015772870662460567
s(g69
g69
g69
tp1821
F0.025236593059936915
s(g62
g61
tp1822
F0.0031496062992125984
s(g262
g934
g933
tp1823
F0.0015772870662460567
s(g415
g632
g633
g414
tp1824
F0.001579778830963665
s(g1425
g1545
g1546
g1544
tp1825
F0.001579778830963665
s(g942
g214
g213
g943
tp1826
F0.001579778830963665
s(g1210
g50
g1211
tp1827
F0.0015772870662460567
s(g175
g625
g477
g176
tp1828
F0.001579778830963665
s(g54
g43
g39
tp1829
F0.0031545741324921135
s(g47
g769
g46
tp1830
F0.0015772870662460567
s(g40
g10
g39
g43
tp1831
F0.007898894154818325
s(g131
g570
g571
tp1832
F0.0015772870662460567
s(g897
g896
tp1833
F0.004724409448818898
s(g839
g975
tp1834
F0.0015748031496062992
s(g69
g41
g39
g40
tp1835
F0.007898894154818325
s(g1283
g1282
tp1836
F0.01732283464566929
s(g51
g731
g385
tp1837
F0.0015772870662460567
s(g368
g255
g369
tp1838
F0.0015772870662460567
s(g69
g43
g39
g69
tp1839
F0.001579778830963665
s(g186
g1191
g1428
g185
tp1840
F0.001579778830963665
s(g1246
g812
g811
g1532
tp1841
F0.001579778830963665
s(g41
g69
g39
g12
tp1842
F0.004739336492890996
s(g241
g1013
g240
tp1843
F0.0015772870662460567
s(g1019
g899
g1074
tp1844
F0.0015772870662460567
s(g189
g410
tp1845
F0.0015748031496062992
s(g39
g40
g39
g39
tp1846
F0.00315955766192733
s(g1458
g43
g39
tp1847
F0.0015772870662460567
s(g39
g172
g10
g39
tp1848
F0.001579778830963665
s(g48
g47
tp1849
F0.006299212598425197
s(g133
g267
g134
tp1850
F0.0015772870662460567
s(g69
g41
g39
g273
tp1851
F0.001579778830963665
s(g10
g219
g12
tp1852
F0.00473186119873817
s(g390
g48
g45
tp1853
F0.0015772870662460567
s(g415
g414
tp1854
F0.0015748031496062992
s(g39
g12
g39
g39
tp1855
F0.00315955766192733
s(g486
g487
tp1856
F0.023622047244094488
s(g10
g54
tp1857
F0.0015748031496062992
s(g39
g69
g69
g41
tp1858
F0.00315955766192733
s(g192
g691
g193
g194
tp1859
F0.001579778830963665
s(g39
g12
g39
tp1860
F0.006309148264984227
s(g730
g25
g581
tp1861
F0.0015772870662460567
s(g1211
g51
g52
g50
tp1862
F0.001579778830963665
s(g69
g10
g39
tp1863
F0.0015772870662460567
s(g41
g54
g10
tp1864
F0.0015772870662460567
s(g169
g316
g170
tp1865
F0.00473186119873817
s(g571
g913
g914
g570
tp1866
F0.001579778830963665
s(g684
g486
tp1867
F0.0015748031496062992
s(g443
g1215
g986
tp1868
F0.0015772870662460567
s(g43
g39
g10
g10
tp1869
F0.001579778830963665
s(g10
g10
g43
tp1870
F0.0015772870662460567
s(g122
g40
g39
g12
tp1871
F0.001579778830963665
s(g43
g40
g40
tp1872
F0.0015772870662460567
s(g498
g500
g501
tp1873
F0.0015772870662460567
s(g393
g69
tp1874
F0.006299212598425197
s(g479
g481
g482
tp1875
F0.0015772870662460567
s(g427
g426
tp1876
F0.004724409448818898
s(g546
g185
g186
g184
tp1877
F0.001579778830963665
s(g43
g12
g41
tp1878
F0.0015772870662460567
s(g39
g39
g43
tp1879
F0.006309148264984227
s(g39
g10
g39
g43
tp1880
F0.001579778830963665
s(g691
g693
tp1881
F0.012598425196850394
s(g1235
g133
g463
g462
tp1882
F0.001579778830963665
s(g216
g176
g175
g217
tp1883
F0.001579778830963665
s(g933
g819
g818
g934
tp1884
F0.001579778830963665
s(g43
g12
g10
g39
tp1885
F0.001579778830963665
s(g39
g12
g10
g172
tp1886
F0.00631911532385466
s(g230
g229
tp1887
F0.004724409448818898
s(g39
g69
tp1888
F0.026771653543307086
s(g636
g351
g389
g635
tp1889
F0.001579778830963665
s(g41
g39
g122
tp1890
F0.0015772870662460567
s(g1101
g1099
g1100
tp1891
F0.0015772870662460567
s(g69
g69
g69
g69
tp1892
F0.014218009478672983
s(g10
S'11'
p1893
g39
g12
tp1894
F0.001579778830963665
s(g325
g1372
g1373
g326
tp1895
F0.001579778830963665
s(g1516
g124
g910
tp1896
F0.0015772870662460567
s(g925
g832
g830
tp1897
F0.0015772870662460567
s(g673
g3
g671
g672
tp1898
F0.004739336492890996
s(g264
g262
g263
tp1899
F0.0015772870662460567
s(g41
g10
g12
g12
tp1900
F0.00315955766192733
s(g390
g47
g48
g45
tp1901
F0.001579778830963665
s(g950
g96
g93
tp1902
F0.007886435331230283
s(g628
g1187
g627
tp1903
F0.0031545741324921135
s(g26
g186
g184
g546
tp1904
F0.00315955766192733
s(g10
g1658
g40
tp1905
F0.0015772870662460567
s(g10
g41
g219
g12
tp1906
F0.00315955766192733
s(g1050
g748
tp1907
F0.0015748031496062992
s(g39
g10
g39
g69
tp1908
F0.001579778830963665
s(g979
g105
g323
g322
tp1909
F0.001579778830963665
s(g179
g181
g182
tp1910
F0.0015772870662460567
s(g43
g69
g39
tp1911
F0.0031545741324921135
s(g1044
g144
g141
tp1912
F0.00473186119873817
s(g1127
g341
tp1913
F0.004724409448818898
s(g676
g122
g41
g43
tp1914
F0.00631911532385466
s(g10
g39
g917
g12
tp1915
F0.001579778830963665
s(g12
g39
g40
g41
tp1916
F0.00315955766192733
s(g39
g40
g122
g41
tp1917
F0.001579778830963665
s(g708
g403
g525
tp1918
F0.0015772870662460567
s(g39
g43
g574
g40
tp1919
F0.00315955766192733
s(g900
g687
tp1920
F0.0015748031496062992
s(g56
g664
g57
g58
tp1921
F0.001579778830963665
s(g10
g10
g43
g40
tp1922
F0.001579778830963665
s(g1191
g896
g897
g894
tp1923
F0.001579778830963665
s(g1183
g956
tp1924
F0.004724409448818898
s(g69
g41
g40
g805
tp1925
F0.001579778830963665
s(g1013
g1012
tp1926
F0.0031496062992125984
s(g41
g41
g10
g12
tp1927
F0.001579778830963665
s(g1210
g1211
tp1928
F0.0015748031496062992
s(g1278
g50
g1211
g1210
tp1929
F0.001579778830963665
s(g152
g516
g517
g515
tp1930
F0.001579778830963665
s(g39
g39
g43
g557
tp1931
F0.00631911532385466
s(g39
g39
g10
g40
tp1932
F0.00315955766192733
s(g691
g692
g693
tp1933
F0.0015772870662460567
s(g43
g12
g43
g39
tp1934
F0.001579778830963665
s(g696
g697
tp1935
F0.0015748031496062992
s(g234
g743
g1001
g233
tp1936
F0.001579778830963665
s(g151
g153
g154
tp1937
F0.0015772870662460567
s(g389
g352
g351
tp1938
F0.0015772870662460567
s(g538
g613
g539
g540
tp1939
F0.001579778830963665
s(g641
g962
tp1940
F0.004724409448818898
s(g69
g43
g39
tp1941
F0.0015772870662460567
s(g122
g586
g40
tp1942
F0.0015772870662460567
s(g823
g316
g170
g169
tp1943
F0.00315955766192733
s(g1034
g1123
g1033
tp1944
F0.0015772870662460567
s(g897
g895
g896
tp1945
F0.0015772870662460567
s(g69
g69
g41
tp1946
F0.0015772870662460567
s(g46
g769
tp1947
F0.004724409448818898
s(g10
g39
g39
g39
tp1948
F0.004739336492890996
s(g122
g10
g40
tp1949
F0.0015772870662460567
s(g69
g39
g41
tp1950
F0.00473186119873817
s(g43
g10
g12
tp1951
F0.0015772870662460567
s(g434
g90
tp1952
F0.0031496062992125984
s(g753
g783
g752
tp1953
F0.0031545741324921135
s(g516
g463
g462
g1235
tp1954
F0.001579778830963665
s(g109
g39
g40
g40
tp1955
F0.00315955766192733
s(g39
g69
g10
g39
tp1956
F0.001579778830963665
s(g895
g423
tp1957
F0.0015748031496062992
s(g1277
g1211
g1210
g1278
tp1958
F0.001579778830963665
s(g69
g39
g39
g39
tp1959
F0.007898894154818325
s(g10
g43
g41
g43
tp1960
F0.001579778830963665
s(g332
g1059
g330
g331
tp1961
F0.001579778830963665
s(g43
g41
g43
g10
tp1962
F0.001579778830963665
s(g1333
g74
g71
g1332
tp1963
F0.001579778830963665
s(g294
g297
tp1964
F0.0015748031496062992
s(g500
g1147
g1296
g499
tp1965
F0.001579778830963665
s(g880
g414
g415
g413
tp1966
F0.001579778830963665
s(g69
g39
g122
tp1967
F0.0031545741324921135
s(g672
g671
tp1968
F0.004724409448818898
s(g52
g731
g385
g51
tp1969
F0.001579778830963665
s(g40
g40
g10
tp1970
F0.0015772870662460567
s(g680
g149
g146
g679
tp1971
F0.001579778830963665
s(g571
g914
g570
tp1972
F0.0015772870662460567
s(g1215
g136
g226
g225
tp1973
F0.00315955766192733
s(g400
g297
g294
g858
tp1974
F0.001579778830963665
s(g10
g39
g1458
g172
tp1975
F0.001579778830963665
s(g1025
g131
g130
tp1976
F0.007886435331230283
s(g69
g41
tp1977
F0.009448818897637795
s(g39
g40
g10
g40
tp1978
F0.001579778830963665
s(g39
g39
g43
g10
tp1979
F0.004739336492890996
s(g1215
g225
tp1980
F0.0031496062992125984
s((I5
g4
I0
tp1981
g863
g861
g1290
tp1982
F0.00631911532385466
s(g39
g88
g69
g43
tp1983
F0.001579778830963665
s(g41
g40
g40
tp1984
F0.0031545741324921135
s(g80
g505
g503
g79
tp1985
F0.001579778830963665
s(g426
g774
g771
tp1986
F0.00473186119873817
s(g427
g774
g771
g426
tp1987
F0.00315955766192733
s(g43
g12
g40
g40
tp1988
F0.001579778830963665
s(g170
g316
tp1989
F0.011023622047244094
s(g617
g618
tp1990
F0.0015748031496062992
s(g692
g211
g20
g19
tp1991
F0.00315955766192733
s(g79
g504
g505
g503
tp1992
F0.001579778830963665
s(g1420
g779
tp1993
F0.0031496062992125984
s(g633
g1160
g631
g632
tp1994
F0.001579778830963665
s(g1428
g897
g894
g1191
tp1995
F0.001579778830963665
s(g10
g69
tp1996
F0.006299212598425197
s(g40
g39
g122
g69
tp1997
F0.00315955766192733
s(g784
g1277
g1441
tp1998
F0.00946372239747634
s(g335
g415
g413
g880
tp1999
F0.001579778830963665
s(g39
g10
g39
tp2000
F0.0031545741324921135
s(g69
g40
g40
g360
tp2001
F0.001579778830963665
s(g326
g1373
tp2002
F0.0015748031496062992
s(g886
g1020
g1018
tp2003
F0.0015772870662460567
s(g346
g354
g507
g508
tp2004
F0.001579778830963665
s(g1476
g325
g529
g1477
tp2005
F0.001579778830963665
s(g756
g839
g840
tp2006
F0.0031545741324921135
s(g523
g308
g320
g319
tp2007
F0.001579778830963665
s(g10
g39
g43
g69
tp2008
F0.001579778830963665
s(g10
g39
g10
tp2009
F0.0015772870662460567
s(g194
g693
g691
g193
tp2010
F0.001579778830963665
s(g679
g148
g149
g146
tp2011
F0.001579778830963665
s(g172
g39
g10
tp2012
F0.0015772870662460567
s(g687
g689
tp2013
F0.0015748031496062992
s(g10
g40
g69
tp2014
F0.0015772870662460567
s(g3
g8
tp2015
F0.006299212598425197
s(g10
g43
g557
g39
tp2016
F0.00315955766192733
s(g424
g1395
g1178
tp2017
F0.0015772870662460567
s(g633
g631
g632
tp2018
F0.0015772870662460567
s(g995
g608
g1555
tp2019
F0.0015772870662460567
s(g39
g40
g69
g39
tp2020
F0.00315955766192733
s(g43
g122
g41
tp2021
F0.006309148264984227
s(g43
g40
g10
tp2022
F0.0015772870662460567
s(g840
g975
g839
tp2023
F0.0015772870662460567
s(g10
g43
g12
tp2024
F0.0015772870662460567
s(g277
g170
g169
g823
tp2025
F0.00315955766192733
s(g41
g39
g39
g41
tp2026
F0.001579778830963665
s(g627
g1186
g1187
tp2027
F0.0031545741324921135
s(g10
g39
g1658
g40
tp2028
F0.001579778830963665
s(g41
g10
g122
tp2029
F0.006309148264984227
s(g660
g154
g151
tp2030
F0.0015772870662460567
s(g515
g1235
g516
g517
tp2031
F0.00315955766192733
s(g41
g41
g39
g39
tp2032
F0.001579778830963665
s(g1348
g643
g956
g1183
tp2033
F0.001579778830963665
s(g329
g331
g332
tp2034
F0.0015772870662460567
s(g40
g12
g39
g39
tp2035
F0.001579778830963665
s(g40
g39
g41
g39
tp2036
F0.004739336492890996
s(g410
g408
g409
tp2037
F0.0015772870662460567
s(g746
g10
tp2038
F0.0015748031496062992
s(g730
g581
tp2039
F0.0015748031496062992
s(g39
g43
g676
g39
tp2040
F0.00947867298578199
s(g10
g122
g43
tp2041
F0.00473186119873817
s(g1018
g1074
g1019
g1020
tp2042
F0.001579778830963665
s(g1382
g213
g943
g942
tp2043
F0.001579778830963665
s(g100
g99
tp2044
F0.004724409448818898
s(g1012
g400
g399
g1011
tp2045
F0.001579778830963665
s(g689
g688
tp2046
F0.0015748031496062992
s(g10
g12
tp2047
F0.015748031496062992
s(g122
g10
tp2048
F0.009448818897637795
s(g858
g297
g294
tp2049
F0.0015772870662460567
s(g176
g625
g477
tp2050
F0.0015772870662460567
s(g849
g827
g826
g848
tp2051
F0.001579778830963665
s(g88
g41
g776
g87
tp2052
F0.001579778830963665
s(g39
g43
g43
g12
tp2053
F0.001579778830963665
s(g956
g555
g643
tp2054
F0.0015772870662460567
s(g12
g219
tp2055
F0.004724409448818898
s(g149
g443
g147
g148
tp2056
F0.001579778830963665
s(g730
g27
g25
g581
tp2057
F0.001579778830963665
s(g39
g39
g39
g41
tp2058
F0.00631911532385466
s(g608
g610
tp2059
F0.0015748031496062992
s(g69
g69
tp2060
F0.04094488188976378
s(g1221
g196
tp2061
F0.0015748031496062992
s(g246
g244
g245
tp2062
F0.0015772870662460567
s(g306
g304
g305
tp2063
F0.0015772870662460567
s(g39
g43
g40
g39
tp2064
F0.001579778830963665
s(g776
g43
g892
g41
tp2065
F0.001579778830963665
s(g39
g39
g40
g43
tp2066
F0.001579778830963665
s(g930
g62
g60
tp2067
F0.0015772870662460567
s(g211
g151
g660
g973
tp2068
F0.001579778830963665
s(g122
g39
g39
tp2069
F0.0015772870662460567
s(g1012
g399
g1011
tp2070
F0.0015772870662460567
s(g43
g41
g39
tp2071
F0.007886435331230283
s(g282
g283
g284
tp2072
F0.0015772870662460567
s(g667
g622
tp2073
F0.0015748031496062992
s(g146
g149
tp2074
F0.0015748031496062992
s(g805
g69
g41
g40
tp2075
F0.001579778830963665
s(g1147
g466
g577
tp2076
F0.0015772870662460567
s(g433
g434
tp2077
F0.0031496062992125984
s(g417
g29
g418
g419
tp2078
F0.001579778830963665
s(g69
g40
g805
tp2079
F0.0015772870662460567
s(g714
g188
tp2080
F0.0015748031496062992
s(g696
g334
g697
tp2081
F0.0015772870662460567
s(g780
g657
g441
g440
tp2082
F0.00315955766192733
s(g766
g1544
g1425
g765
tp2083
F0.001579778830963665
s(g12
g10
g39
g43
tp2084
F0.001579778830963665
s(g122
g172
tp2085
F0.0031496062992125984
s(g805
g40
tp2086
F0.0015748031496062992
s(g10
g394
g69
tp2087
F0.0015772870662460567
s(g66
g10
tp2088
F0.0031496062992125984
s(g10
g172
tp2089
F0.0031496062992125984
s(g482
g494
g480
g481
tp2090
F0.001579778830963665
s(g1491
g1044
g1492
tp2091
F0.0031545741324921135
s(g996
g608
g1555
g995
tp2092
F0.001579778830963665
s(g41
g41
g40
g69
tp2093
F0.001579778830963665
s(g504
g1570
tp2094
F0.0015748031496062992
s(g410
(I5
g4
I0
tp2095
g408
g409
tp2096
F0.001579778830963665
s(g332
g330
g331
tp2097
F0.0015772870662460567
s(g39
g746
g122
tp2098
F0.0015772870662460567
s(g40
g39
g591
g592
tp2099
F0.00315955766192733
s(g39
g69
g39
g39
tp2100
F0.001579778830963665
s(g12
g10
g12
tp2101
F0.0031545741324921135
s(g283
g58
g56
tp2102
F0.0015772870662460567
s(g913
g604
g601
tp2103
F0.0015772870662460567
s(g163
g427
g162
tp2104
F0.0031545741324921135
s(g12
g43
g10
g172
tp2105
F0.001579778830963665
s(g793
g816
g1023
tp2106
F0.0031545741324921135
s(g807
g766
g767
g764
tp2107
F0.001579778830963665
s(g441
g656
g657
tp2108
F0.0031545741324921135
s(g136
g139
tp2109
F0.0031496062992125984
s(g102
g978
g1165
g103
tp2110
F0.001579778830963665
s(g773
g276
g772
tp2111
F0.0031545741324921135
s(g973
g660
tp2112
F0.014173228346456693
s(g100
g379
g269
g99
tp2113
F0.001579778830963665
s(g1540
g233
g234
g232
tp2114
F0.001579778830963665
s(g11
g39
tp2115
F0.004724409448818898
s(g316
g1420
g314
g315
tp2116
F0.00315955766192733
s(g771
g774
tp2117
F0.006299212598425197
s(g138
g751
g137
tp2118
F0.0015772870662460567
s(g103
g978
g1165
tp2119
F0.0031545741324921135
s(g684
g487
g486
tp2120
F0.0015772870662460567
s(g1187
g1185
g1186
tp2121
F0.0031545741324921135
s(g454
g453
tp2122
F0.0015748031496062992
s(g122
g40
g12
g10
tp2123
F0.001579778830963665
s(g1532
g696
g812
g811
tp2124
F0.001579778830963665
s(g1047
g539
g540
g538
tp2125
F0.001579778830963665
s(g523
g320
g319
tp2126
F0.0015772870662460567
s(g43
g39
g69
g39
tp2127
F0.00315955766192733
s(g146
g148
g149
tp2128
F0.0015772870662460567
s(g433
g90
g434
tp2129
F0.0031545741324921135
s(g776
g892
g41
tp2130
F0.0015772870662460567
s(g19
g973
g211
g20
tp2131
F0.001579778830963665
s(g249
g1183
g1348
g377
tp2132
F0.001579778830963665
s(g12
g39
g39
g39
tp2133
F0.00315955766192733
s(g39
g69
g43
g10
tp2134
F0.001579778830963665
s(g39
g10
g41
g43
tp2135
F0.001579778830963665
s(g10
g39
g43
g12
tp2136
F0.001579778830963665
s(g899
g689
g687
g900
tp2137
F0.001579778830963665
s(g292
g290
g291
tp2138
F0.0015772870662460567
s(g826
(I7
g2
I1
tp2139
g1643
g827
tp2140
F0.001579778830963665
s(g325
g1373
g326
tp2141
F0.0015772870662460567
s(g563
g35
g490
g562
tp2142
F0.001579778830963665
s(g258
g259
tp2143
F0.0015748031496062992
s(g39
g43
g40
g41
tp2144
F0.001579778830963665
s(g39
g574
g40
g39
tp2145
F0.00315955766192733
s(g450
g606
g962
g641
tp2146
F0.001579778830963665
s(g58
g664
g57
tp2147
F0.0015772870662460567
s(g256
g253
g252
g1015
tp2148
F0.001579778830963665
s(g377
g956
g1183
g1348
tp2149
F0.001579778830963665
s(g895
g424
g423
tp2150
F0.0015772870662460567
s(g114
g551
tp2151
F0.004724409448818898
s(g645
g371
tp2152
F0.0015748031496062992
s(g122
g43
g43
tp2153
F0.0015772870662460567
s(g900
g689
g687
tp2154
F0.0015772870662460567
s(g39
g41
g39
g39
tp2155
F0.00631911532385466
s(g69
g39
g69
tp2156
F0.00946372239747634
s(g64
g11
g12
g10
tp2157
F0.001579778830963665
s(g43
g599
g10
tp2158
F0.0015772870662460567
s(g426
g771
tp2159
F0.012598425196850394
s(g525
g405
g406
g403
tp2160
F0.001579778830963665
s(g301
g228
g1287
g300
tp2161
F0.001579778830963665
s(g960
g591
g592
g40
tp2162
F0.00315955766192733
s(g290
g522
g618
g617
tp2163
F0.001579778830963665
s(g1312
g305
g306
g303
tp2164
F0.001579778830963665
s(g767
g765
g766
tp2165
F0.0015772870662460567
s(g849
g826
g848
tp2166
F0.0015772870662460567
s(g39
g69
g69
g69
tp2167
F0.00315955766192733
s(g596
g951
g594
g595
tp2168
F0.001579778830963665
s(g758
g840
g756
g757
tp2169
F0.001579778830963665
s(g41
g69
g69
g69
tp2170
F0.001579778830963665
s(g41
g43
g892
tp2171
F0.0015772870662460567
s(g716
g188
g714
g715
tp2172
F0.001579778830963665
s(g1555
g610
g608
tp2173
F0.0015772870662460567
s(g1023
g371
g645
g816
tp2174
F0.001579778830963665
s(g348
g508
g346
g347
tp2175
F0.001579778830963665
s(g1395
g1332
g1333
g1331
tp2176
F0.001579778830963665
s(g628
g627
tp2177
F0.004724409448818898
s(g1333
g71
g1332
tp2178
F0.0015772870662460567
s(g950
g95
g96
g93
tp2179
F0.00631911532385466
s(g1053
g43
g10
g43
tp2180
F0.001579778830963665
s(g10
g40
g39
tp2181
F0.00473186119873817
s(g12
g68
g69
g43
tp2182
F0.001579778830963665
s(g39
g10
g64
tp2183
F0.0015772870662460567
s(g443
g225
g1215
g986
tp2184
F0.001579778830963665
s(g715
g190
g188
g714
tp2185
F0.001579778830963665
s(g39
g1529
g40
tp2186
F0.00473186119873817
s(g629
g628
tp2187
F0.011023622047244094
s(g51
g385
tp2188
F0.0015748031496062992
s(g426
g773
g774
g771
tp2189
F0.00315955766192733
s(g727
g303
g1312
g726
tp2190
F0.001579778830963665
s(g122
g39
g39
g172
tp2191
F0.00315955766192733
s(g8
(I2
g4
I0
tp2192
g5
g6
tp2193
F0.001579778830963665
s(g566
g16
g17
g14
tp2194
F0.001579778830963665
s(g632
g631
tp2195
F0.0031496062992125984
s(g40
g172
g122
g69
tp2196
F0.001579778830963665
s(g551
g533
g531
tp2197
F0.0015772870662460567
s(g43
g10
g41
g39
tp2198
F0.001579778830963665
s(g681
g146
g679
g680
tp2199
F0.001579778830963665
s(g69
g39
g172
tp2200
F0.0015772870662460567
s(g12
g10
tp2201
F0.007874015748031496
s(g279
g823
g277
g278
tp2202
F0.00315955766192733
s(g315
g314
tp2203
F0.011023622047244094
s(g39
g41
g12
g39
tp2204
F0.00315955766192733
s(g103
g1165
tp2205
F0.006299212598425197
s(g39
g557
g39
g10
tp2206
F0.00315955766192733
s(g785
g1441
g784
tp2207
F0.0015772870662460567
s(g276
g278
g279
tp2208
F0.0015772870662460567
s(g182
g180
g181
tp2209
F0.0015772870662460567
s(g930
g60
tp2210
F0.0015748031496062992
s(g39
g122
g41
tp2211
F0.0031545741324921135
s(g1127
g342
g343
g341
tp2212
F0.004739336492890996
s(g43
g39
g40
g10
tp2213
F0.001579778830963665
s(g73
g217
g216
g72
tp2214
F0.001579778830963665
s(g758
g756
g757
tp2215
F0.0015772870662460567
s(g700
g196
g1221
g701
tp2216
F0.001579778830963665
s(g656
g655
tp2217
F0.0031496062992125984
s(g382
g562
g563
tp2218
F0.0015772870662460567
s(g12
g43
g12
g39
tp2219
F0.001579778830963665
s(g141
g144
tp2220
F0.004724409448818898
s(g39
g10
g39
g39
tp2221
F0.00315955766192733
s(g371
g374
tp2222
F0.0015748031496062992
s(g12
g39
g69
g39
tp2223
F0.004739336492890996
s(g10
g40
g39
g39
tp2224
F0.001579778830963665
s(g1100
g111
g1099
tp2225
F0.0015772870662460567
s(g657
g655
g656
tp2226
F0.0031545741324921135
s(g69
g12
g41
tp2227
F0.0031545741324921135
s(g684
g417
g487
g486
tp2228
F0.001579778830963665
s(g61
g98
tp2229
F0.004724409448818898
s(g1383
g943
g942
g1382
tp2230
F0.001579778830963665
s(g1013
g1011
g1012
tp2231
F0.0015772870662460567
s(g688
g875
tp2232
F0.0015748031496062992
s(g39
g43
g43
g122
tp2233
F0.001579778830963665
s(g781
g441
g440
g780
tp2234
F0.00315955766192733
s(g595
g950
g951
g594
tp2235
F0.001579778830963665
s(g812
g334
g697
g696
tp2236
F0.001579778830963665
s(g264
g933
g262
g263
tp2237
F0.001579778830963665
s(g32
g102
g33
tp2238
F0.0015772870662460567
s(g517
g1235
g516
tp2239
F0.0031545741324921135
s(g701
g1221
tp2240
F0.0015748031496062992
s(g667
g513
g512
g622
tp2241
F0.001579778830963665
s(g163
g162
tp2242
F0.0031496062992125984
s(g731
g581
g730
tp2243
F0.0015772870662460567
s(g1050
g749
g748
tp2244
F0.0015772870662460567
s(g701
g196
g1221
tp2245
F0.0015772870662460567
s(g681
g680
tp2246
F0.0031496062992125984
s(g657
g656
tp2247
F0.0031496062992125984
s(g347
g508
g346
tp2248
F0.0015772870662460567
s(g748
g700
g749
tp2249
F0.0015772870662460567
s(g122
g69
g40
tp2250
F0.0031545741324921135
s(g865
g866
g867
tp2251
F0.0031545741324921135
s(g134
g312
g266
g267
tp2252
F0.001579778830963665
s(g10
g1458
g172
tp2253
F0.0015772870662460567
s(g933
g818
g934
tp2254
F0.0015772870662460567
s(g39
g39
g118
tp2255
F0.0015772870662460567
s(g12
g586
g40
g122
tp2256
F0.001579778830963665
s(g1420
g781
g779
tp2257
F0.0031545741324921135
s(g697
g336
g337
g334
tp2258
F0.001579778830963665
s(g1126
g343
g341
g1127
tp2259
F0.004739336492890996
s(g1046
g538
g1047
tp2260
F0.0015772870662460567
s(g39
g43
g10
tp2261
F0.007886435331230283
s(g39
g43
g39
g39
tp2262
F0.004739336492890996
s(g36
g1055
g458
g436
tp2263
F0.001579778830963665
s(g30
g182
g179
g271
tp2264
F0.001579778830963665
s(g504
(I1
g4
I3
tp2265
g1570
tp2266
F0.0015772870662460567
s(g41
g39
g39
tp2267
F0.007886435331230283
s(g84
g1050
tp2268
F0.0015748031496062992
s(g229
g716
g713
tp2269
F0.0015772870662460567
s(g40
g41
g41
tp2270
F0.0015772870662460567
s(g262
g818
g934
g933
tp2271
F0.001579778830963665
s(g10
g10
g39
g43
tp2272
F0.004739336492890996
s(g372
g680
g681
g678
tp2273
F0.00315955766192733
s(g246
g725
g244
g245
tp2274
F0.001579778830963665
s(g43
g10
g39
tp2275
F0.018927444794952685
s(g259
g200
g199
tp2276
F0.0015772870662460567
s(g614
g942
g1382
g1383
tp2277
F0.001579778830963665
s(g39
g40
g41
g12
tp2278
F0.00315955766192733
s(g41
g12
g41
g172
tp2279
F0.00315955766192733
s(g1893
g599
g10
g43
tp2280
F0.001579778830963665
s(g40
g10
g172
g39
tp2281
F0.001579778830963665
s(g595
g594
tp2282
F0.0031496062992125984
s(g631
g1160
tp2283
F0.0031496062992125984
s(g371
g373
g374
tp2284
F0.0015772870662460567
s(g122
g39
g40
g10
tp2285
F0.004739336492890996
s(g320
g310
g308
tp2286
F0.0015772870662460567
s(g159
g162
g163
g161
tp2287
F0.001579778830963665
s(g39
g39
g40
g69
tp2288
F0.007898894154818325
s(g1529
g39
tp2289
F0.012598425196850394
s(g896
g424
g423
g895
tp2290
F0.001579778830963665
s(g12
g69
tp2291
F0.004724409448818898
s(g41
g40
g122
tp2292
F0.0031545741324921135
s(g253
g206
g207
g205
tp2293
F0.001579778830963665
s(g39
g1589
g39
g41
tp2294
F0.001579778830963665
s(g870
g470
tp2295
F0.004724409448818898
s(g153
g515
g152
tp2296
F0.0015772870662460567
s(g10
g69
g41
tp2297
F0.0015772870662460567
s(g149
g147
g148
tp2298
F0.0015772870662460567
s(g487
g417
tp2299
F0.004724409448818898
s(g273
g41
g39
tp2300
F0.0015772870662460567
s(g451
g962
g641
g450
tp2301
F0.001579778830963665
s(g517
g462
g1235
g516
tp2302
F0.001579778830963665
s(g774
g276
g772
g773
tp2303
F0.00315955766192733
s(g979
g323
g322
tp2304
F0.0031545741324921135
s(g679
g149
g146
tp2305
F0.0015772870662460567
s(g39
g10
g64
g64
tp2306
F0.001579778830963665
s(g12
g41
g10
tp2307
F0.0015772870662460567
s(g301
g1287
g300
tp2308
F0.0015772870662460567
s(g69
g10
g39
g43
tp2309
F0.00315955766192733
s(g69
g592
g40
g960
tp2310
F0.00315955766192733
s(g10
g43
g69
tp2311
F0.0015772870662460567
s(g591
g39
g39
g39
tp2312
F0.00315955766192733
s(g271
g179
tp2313
F0.004724409448818898
s(g632
g1159
g1160
g631
tp2314
F0.001579778830963665
s(g624
g239
tp2315
F0.0015748031496062992
s(g304
g1451
g902
g903
tp2316
F0.001579778830963665
s(g1235
g462
tp2317
F0.0015748031496062992
s(g772
g279
g276
tp2318
F0.0015772870662460567
s(g291
g618
g617
g290
tp2319
F0.001579778830963665
s(g1555
g609
g610
g608
tp2320
F0.001579778830963665
s(g393
g39
g69
g69
tp2321
F0.00315955766192733
s(g22
g1540
g23
tp2322
F0.0015772870662460567
s(g343
g1247
g1248
g342
tp2323
F0.001579778830963665
s(g113
g115
tp2324
F0.0031496062992125984
s(g903
g902
tp2325
F0.0015748031496062992
s(g154
g515
g152
g153
tp2326
F0.001579778830963665
s(g139
g137
g138
tp2327
F0.0031545741324921135
s(g975
g331
g332
g329
tp2328
F0.001579778830963665
s(g23
g232
g1540
tp2329
F0.0015772870662460567
s(g69
g39
g12
g41
tp2330
F0.00315955766192733
s(g47
g368
g769
g46
tp2331
F0.001579778830963665
s(g43
g40
g43
g39
tp2332
F0.001579778830963665
s(g779
g781
tp2333
F0.0031496062992125984
s(g986
g226
g225
g1215
tp2334
F0.001579778830963665
s(g12
g1893
g39
tp2335
F0.0015772870662460567
s(g43
g69
g10
g39
tp2336
F0.001579778830963665
s(g39
g10
g41
g39
tp2337
F0.00315955766192733
s(g69
g40
g805
g69
tp2338
F0.001579778830963665
s(g266
g236
g312
tp2339
F0.0015772870662460567
s(g69
g39
tp2340
F0.02204724409448819
s(g12
g12
g41
g219
tp2341
F0.00315955766192733
s(g322
g323
tp2342
F0.0031496062992125984
s(g351
g45
g390
g352
tp2343
F0.001579778830963665
s(g39
g122
g39
tp2344
F0.0031545741324921135
s(g255
g252
g1015
g256
tp2345
F0.001579778830963665
s(g505
g2265
g1570
g504
tp2346
F0.001579778830963665
s(g39
g64
g64
tp2347
F0.0015772870662460567
s(g39
g10
g746
g122
tp2348
F0.001579778830963665
s(g625
g239
g624
tp2349
F0.0015772870662460567
s(g418
g29
tp2350
F0.0015748031496062992
s(g259
g199
tp2351
F0.0015748031496062992
s(g118
g43
g39
g39
tp2352
F0.001579778830963665
s(g362
g1100
g1101
g1098
tp2353
F0.001579778830963665
s(g880
g415
g413
tp2354
F0.0015772870662460567
s(g801
g114
g115
g113
tp2355
F0.001579778830963665
s(g826
g1643
g827
tp2356
F0.0015772870662460567
s(g835
g124
g910
g1516
tp2357
F0.001579778830963665
s(g219
g12
g41
tp2358
F0.0031545741324921135
s(g1544
g994
g1545
g1546
tp2359
F0.001579778830963665
s(g494
g493
tp2360
F0.0015748031496062992
s(g39
g172
g69
g12
tp2361
F0.001579778830963665
s(g41
g122
g40
g122
tp2362
F0.001579778830963665
s(g69
g1269
g1270
g40
tp2363
F0.001579778830963665
s(g557
g39
g39
g43
tp2364
F0.00631911532385466
s(g64
g10
tp2365
F0.0031496062992125984
s(g625
g241
g239
g624
tp2366
F0.001579778830963665
s(g997
g1555
g995
g996
tp2367
F0.001579778830963665
s(g1159
g113
g801
g800
tp2368
F0.001579778830963665
s(g660
g153
g154
g151
tp2369
F0.001579778830963665
s(g172
g172
tp2370
F0.0015748031496062992
s(g41
g892
tp2371
F0.0015748031496062992
s(g594
g951
tp2372
F0.004724409448818898
s(g122
g12
g10
tp2373
F0.0031545741324921135
s(g196
g245
g246
g197
tp2374
F0.001579778830963665
s(g341
g1248
g342
g343
tp2375
F0.001579778830963665
s(g39
g12
g39
g43
tp2376
F0.001579778830963665
s(g40
g39
g39
tp2377
F0.00946372239747634
s(g772
g278
g279
g276
tp2378
F0.001579778830963665
s(g1015
g205
g253
g252
tp2379
F0.001579778830963665
s(g259
g454
g200
g199
tp2380
F0.001579778830963665
s(g641
g542
g606
g962
tp2381
F0.001579778830963665
s(g1221
g246
g197
g196
tp2382
F0.001579778830963665
s(g12
g43
g39
g917
tp2383
F0.001579778830963665
s(g39
g39
g39
g10
tp2384
F0.00631911532385466
s(g975
g329
tp2385
F0.0015748031496062992
s(g577
g264
g261
g466
tp2386
F0.001579778830963665
s(g185
g894
g1191
g1428
tp2387
F0.001579778830963665
s(g144
g1034
g142
g143
tp2388
F0.001579778830963665
s(g320
g309
g310
g308
tp2389
F0.001579778830963665
s(g12
g43
g40
g10
tp2390
F0.001579778830963665
s(g10
g39
g11
g12
tp2391
F0.001579778830963665
s(g40
g76
g40
tp2392
F0.0015772870662460567
s(g839
g329
g975
tp2393
F0.0015772870662460567
s(g507
g355
g356
g354
tp2394
F0.001579778830963665
s(g64
g10
g64
tp2395
F0.0015772870662460567
s(g812
g697
g696
tp2396
F0.0015772870662460567
s(g463
g134
g133
tp2397
F0.0015772870662460567
s(g453
g479
g620
tp2398
F0.0015772870662460567
s(g186
g1428
g185
tp2399
F0.0015772870662460567
s(g172
g41
tp2400
F0.004724409448818898
s(g498
g501
tp2401
F0.004724409448818898
s(g973
g151
g660
tp2402
F0.0015772870662460567
s(g693
g19
g692
tp2403
F0.007886435331230283
s(g931
g60
g930
tp2404
F0.0015772870662460567
s(g310
g563
g382
g309
tp2405
F0.001579778830963665
s(g10
g40
g10
g43
tp2406
F0.001579778830963665
s(g1020
g899
g1074
g1019
tp2407
F0.001579778830963665
s(g10
g69
g69
tp2408
F0.0015772870662460567
s(g436
g1046
g1055
g458
tp2409
F0.001579778830963665
s(g41
g41
g43
g10
tp2410
F0.001579778830963665
s(g230
g713
g229
tp2411
F0.0015772870662460567
s(g130
g571
g131
tp2412
F0.0015772870662460567
s(g216
g175
g217
tp2413
F0.0015772870662460567
s(g440
g657
g441
tp2414
F0.0031545741324921135
s(g41
g41
g172
g172
tp2415
F0.001579778830963665
s(g1099
g83
g111
tp2416
F0.0015772870662460567
s(g462
g463
tp2417
F0.004724409448818898
s(g12
g69
g43
g43
tp2418
F0.00315955766192733
s(g41
g43
tp2419
F0.006299212598425197
s(g419
g418
tp2420
F0.004724409448818898
s(g64
g12
g10
tp2421
F0.0031545741324921135
s(g190
g189
tp2422
F0.0015748031496062992
s(g10
g43
g39
tp2423
F0.0015772870662460567
s(g39
g122
tp2424
F0.0031496062992125984
s(g471
g283
g284
g282
tp2425
F0.001579778830963665
s(g233
g743
g1001
tp2426
F0.0015772870662460567
s(g40
g69
tp2427
F0.009448818897637795
s(g33
g102
tp2428
F0.006299212598425197
s(g69
g12
g10
g39
tp2429
F0.001579778830963665
s(g305
g304
tp2430
F0.004724409448818898
s(g39
g39
g41
tp2431
F0.007886435331230283
s(g769
g369
g368
tp2432
F0.0015772870662460567
s(g43
g39
g40
tp2433
F0.0015772870662460567
s(g532
g1005
tp2434
F0.004724409448818898
s(g314
g781
g779
g1420
tp2435
F0.00315955766192733
s(g501
g1296
g499
g500
tp2436
F0.001579778830963665
s((I2
g7
I0
tp2437
g166
g167
g165
tp2438
F0.001579778830963665
s(g794
g816
g1023
g793
tp2439
F0.001579778830963665
s(g668
g622
g667
tp2440
F0.0015772870662460567
s(g43
g69
g40
tp2441
F0.0015772870662460567
s(g886
g1019
g1020
g1018
tp2442
F0.001579778830963665
s(g39
g43
g10
g66
tp2443
F0.00315955766192733
s(g1055
g1047
g1046
tp2444
F0.0015772870662460567
s(g102
g1165
g103
tp2445
F0.0015772870662460567
s(g540
g613
g539
tp2446
F0.0015772870662460567
s(g355
g363
g364
tp2447
F0.0031545741324921135
s(g40
g41
g10
g43
tp2448
F0.001579778830963665
s(g43
g39
g10
g39
tp2449
F0.00947867298578199
s(g12
g39
g11
tp2450
F0.0015772870662460567
s(g69
g40
tp2451
F0.01732283464566929
s(g39
g41
tp2452
F0.03307086614173228
s(g184
g186
tp2453
F0.004724409448818898
s(g1160
g801
g800
g1159
tp2454
F0.001579778830963665
s(g1555
g608
tp2455
F0.006299212598425197
s(g107
g106
tp2456
F0.0015748031496062992
s(g39
g39
g43
g41
tp2457
F0.00315955766192733
s(g1348
g956
g1183
tp2458
F0.0031545741324921135
s(g736
g867
g865
g735
tp2459
F0.00315955766192733
s(g462
g134
g133
g463
tp2460
F0.001579778830963665
s(g194
g691
g193
tp2461
F0.0031545741324921135
s(g43
g12
g39
tp2462
F0.0015772870662460567
s(g494
g1092
g492
g493
tp2463
F0.001579778830963665
s(g10
g43
g39
g54
tp2464
F0.001579778830963665
s(g504
(I7
g2
I0
tp2465
g2265
g1570
tp2466
F0.001579778830963665
s(g767
g1425
g765
g766
tp2467
F0.001579778830963665
s(g1441
g1210
g1278
g1277
tp2468
F0.001579778830963665
s(g303
g306
tp2469
F0.004724409448818898
s(g848
g826
tp2470
F0.0015748031496062992
s(g122
g39
g10
g40
tp2471
F0.001579778830963665
s(g10
g1270
g40
g69
tp2472
F0.001579778830963665
s(g12
g1529
g40
g39
tp2473
F0.001579778830963665
s(g746
g40
g10
tp2474
F0.0015772870662460567
s(g39
g69
g69
tp2475
F0.0031545741324921135
s(g39
g10
g40
tp2476
F0.00473186119873817
s(g292
g617
g290
g291
tp2477
F0.001579778830963665
s(g41
g10
tp2478
F0.006299212598425197
s(g43
g172
g41
tp2479
F0.00473186119873817
s(g308
g382
g309
g310
tp2480
F0.001579778830963665
s(g1165
g322
g979
g978
tp2481
F0.001579778830963665
s(g942
g943
tp2482
F0.0015748031496062992
s(g69
g69
g39
tp2483
F0.00473186119873817
s(g39
g69
g10
tp2484
F0.0031545741324921135
s(g40
g10
g122
g12
tp2485
F0.001579778830963665
s(g40
g10
g10
g43
tp2486
F0.001579778830963665
s(g122
g39
g39
g39
tp2487
F0.001579778830963665
s(g107
g248
g106
tp2488
F0.0015772870662460567
s(g217
g176
g175
tp2489
F0.0015772870662460567
s(g300
g1287
tp2490
F0.0031496062992125984
s(g655
g90
g434
g433
tp2491
F0.00315955766192733
s(g40
g39
g40
tp2492
F0.0031545741324921135
s(g43
g68
g69
tp2493
F0.0015772870662460567
s(g1458
g41
g43
g39
tp2494
F0.001579778830963665
s(g1127
g343
g341
tp2495
F0.00473186119873817
s(g43
g10
g122
g41
tp2496
F0.00631911532385466
s(g40
g10
tp2497
F0.006299212598425197
s(g929
g931
tp2498
F0.0031496062992125984
s(g122
g41
g39
tp2499
F0.0031545741324921135
s(g1451
g292
g289
g1450
tp2500
F0.001579778830963665
s(g230
g716
g713
g229
tp2501
F0.001579778830963665
s(g80
g503
g79
tp2502
F0.0015772870662460567
s(g12
g39
g43
tp2503
F0.0015772870662460567
s(g743
g345
g474
tp2504
F0.0015772870662460567
s(g1015
g253
g252
tp2505
F0.0015772870662460567
s(g396
g403
g525
g708
tp2506
F0.001579778830963665
s(g539
g614
g613
tp2507
F0.0015772870662460567
s(g10
g10
g12
tp2508
F0.0015772870662460567
s(g158
g163
g161
g159
tp2509
F0.001579778830963665
s(g887
g1020
g1018
g886
tp2510
F0.001579778830963665
s(g656
g434
g433
g655
tp2511
F0.00315955766192733
s(g122
g122
g40
tp2512
F0.0015772870662460567
s(g39
g41
g43
g676
tp2513
F0.00631911532385466
s(g1101
g111
g1099
g1100
tp2514
F0.001579778830963665
s(g69
g39
g69
g39
tp2515
F0.001579778830963665
s(g540
g614
g613
g539
tp2516
F0.001579778830963665
s(g592
g39
g591
tp2517
F0.0031545741324921135
s(g156
g172
g39
tp2518
F0.0015772870662460567
s(g1005
g471
g470
g870
tp2519
F0.001579778830963665
s(g41
g39
g54
g10
tp2520
F0.001579778830963665
s(g895
g1178
g424
g423
tp2521
F0.001579778830963665
s(g29
g179
g271
g30
tp2522
F0.001579778830963665
s(g39
g40
g39
tp2523
F0.00473186119873817
s(g538
g540
tp2524
F0.0015748031496062992
s(g197
g246
tp2525
F0.0015748031496062992
s(g1187
g1186
tp2526
F0.0031496062992125984
s(g643
g468
g555
tp2527
F0.0015772870662460567
s(g39
g12
g43
tp2528
F0.0031545741324921135
s(g122
g40
tp2529
F0.009448818897637795
s(g863
g192
g862
tp2530
F0.00473186119873817
s(g486
g417
g487
tp2531
F0.0031545741324921135
s(g167
g22
g166
tp2532
F0.0015772870662460567
s(g780
g441
g440
tp2533
F0.0031545741324921135
s(g43
g40
g10
g12
tp2534
F0.001579778830963665
s(g43
g43
g41
g39
tp2535
F0.004739336492890996
s(g236
g33
g32
g120
tp2536
F0.001579778830963665
s(g423
g1395
g1178
g424
tp2537
F0.001579778830963665
s(g743
g348
g345
g474
tp2538
F0.001579778830963665
s(g39
g40
g109
g39
tp2539
F0.00315955766192733
s(g263
g933
g262
tp2540
F0.0015772870662460567
s(g832
g718
g831
tp2541
F0.0015772870662460567
s(g46
g368
g769
tp2542
F0.0015772870662460567
s(g40
g41
g39
tp2543
F0.007886435331230283
s(g113
g551
g114
g115
tp2544
F0.001579778830963665
s(g617
g523
g522
g618
tp2545
F0.001579778830963665
s(g41
g1589
g39
tp2546
F0.0015772870662460567
s(g10
g10
g172
tp2547
F0.0015772870662460567
s(g69
g69
g39
g41
tp2548
F0.004739336492890996
s(g637
g389
g635
g636
tp2549
F0.001579778830963665
s(g574
g69
g39
g43
tp2550
F0.00315955766192733
s(g180
g637
tp2551
F0.0015748031496062992
s(g41
g41
g39
g43
tp2552
F0.00315955766192733
s(g8
g5
g6
tp2553
F0.0015772870662460567
s(g493
g492
tp2554
F0.0015748031496062992
s(g39
g41
g69
g41
tp2555
F0.00315955766192733
s(g688
g1195
g874
g875
tp2556
F0.001579778830963665
s(g12
g10
g43
g40
tp2557
F0.001579778830963665
s(g477
g625
tp2558
F0.0015748031496062992
s(g40
g43
tp2559
F0.012598425196850394
s(g752
g785
g786
g783
tp2560
F0.001579778830963665
s(g45
g48
tp2561
F0.0031496062992125984
s(g1187
g1561
g1185
g1186
tp2562
F0.00315955766192733
s(g39
g12
g122
g41
tp2563
F0.001579778830963665
s(g162
g771
g426
g427
tp2564
F0.00315955766192733
s(g197
g245
g246
tp2565
F0.0015772870662460567
s(g43
g10
g12
g41
tp2566
F0.001579778830963665
s(g385
g581
g730
g731
tp2567
F0.001579778830963665
s(g91
g629
tp2568
F0.006299212598425197
s(g466
g263
g264
g261
tp2569
F0.001579778830963665
s(g10
g40
g122
g41
tp2570
F0.001579778830963665
s(g41
g41
g69
g39
tp2571
F0.004739336492890996
s(g1281
g1282
g1283
tp2572
F0.00946372239747634
s(g190
g409
g410
g189
tp2573
F0.001579778830963665
s(g41
g12
g43
tp2574
F0.0015772870662460567
s(g399
g858
g400
tp2575
F0.0015772870662460567
s(g400
g294
g858
tp2576
F0.0015772870662460567
s(g256
g252
g1015
tp2577
F0.0015772870662460567
s(g39
g122
g39
g39
tp2578
F0.001579778830963665
s(g39
g39
g1529
g40
tp2579
F0.001579778830963665
s(g10
g41
g43
tp2580
F0.0031545741324921135
s(g463
g267
g134
g133
tp2581
F0.001579778830963665
s(g158
g161
g159
tp2582
F0.0015772870662460567
s(g12
g12
g39
g12
tp2583
F0.001579778830963665
s(g40
g64
g39
g1529
tp2584
F0.00315955766192733
s(g136
g138
g139
tp2585
F0.0015772870662460567
s(g40
g122
g12
tp2586
F0.0015772870662460567
s(g734
g865
g735
g736
tp2587
F0.00315955766192733
s(g10
g39
g43
g39
tp2588
F0.001579778830963665
s(g278
g169
g823
g277
tp2589
F0.00315955766192733
s(g51
g730
g731
g385
tp2590
F0.001579778830963665
s(g188
g410
g189
g190
tp2591
F0.001579778830963665
s(g1159
g801
g800
tp2592
F0.0015772870662460567
s(g43
g69
tp2593
F0.011023622047244094
s(g10
g69
g40
tp2594
F0.0015772870662460567
s(g181
g637
g180
tp2595
F0.0015772870662460567
s(g41
g39
g43
tp2596
F0.0031545741324921135
s(g771
g773
g774
tp2597
F0.0031545741324921135
s(g592
g39
g39
g591
tp2598
F0.00315955766192733
s(g69
g394
tp2599
F0.011023622047244094
s(g1477
g326
g325
g529
tp2600
F0.001579778830963665
s(g382
g563
tp2601
F0.0015748031496062992
s(g1382
g943
g942
tp2602
F0.0015772870662460567
s(g10
g40
g122
g12
tp2603
F0.001579778830963665
s(g39
g40
g40
g109
tp2604
F0.00315955766192733
s(g731
g25
g581
g730
tp2605
F0.001579778830963665
s(g41
g122
tp2606
F0.012598425196850394
s(g43
g40
tp2607
F0.004724409448818898
s(g586
g43
tp2608
F0.006299212598425197
s(g360
g40
g40
g40
tp2609
F0.001579778830963665
s(g418
g271
g30
g29
tp2610
F0.001579778830963665
s(g296
g259
g258
g295
tp2611
F0.001579778830963665
s(g232
g1001
g233
g234
tp2612
F0.001579778830963665
s(g122
g40
g41
g39
tp2613
F0.001579778830963665
s(g314
g779
g1420
tp2614
F0.0031545741324921135
s(g801
g115
g113
tp2615
F0.0015772870662460567
s(g783
g785
g786
tp2616
F0.0015772870662460567
s(g172
g43
g39
g1458
tp2617
F0.001579778830963665
s(g43
g273
g69
g43
tp2618
F0.001579778830963665
s(g513
g223
g221
tp2619
F0.0015772870662460567
s(g69
g172
tp2620
F0.0015748031496062992
s(g450
g962
g641
tp2621
F0.0015772870662460567
s(g819
g685
g683
tp2622
F0.0015772870662460567
s(g728
g1312
g726
g727
tp2623
F0.001579778830963665
s(g122
g172
g12
g10
tp2624
F0.001579778830963665
s(g10
g39
g39
g10
tp2625
F0.001579778830963665
s(g1160
g1159
tp2626
F0.004724409448818898
s(g816
g371
g645
tp2627
F0.0015772870662460567
s(g441
g657
tp2628
F0.0031496062992125984
s(g352
g48
g45
g390
tp2629
F0.001579778830963665
s(g93
g95
g96
tp2630
F0.006309148264984227
s(g10
g39
g12
tp2631
F0.0015772870662460567
s(g655
g433
tp2632
F0.0031496062992125984
s(g12
g43
g40
tp2633
F0.0015772870662460567
s(g1019
g900
g899
g1074
tp2634
F0.001579778830963665
s(g314
g1420
tp2635
F0.0031496062992125984
s(g1441
g1278
g1277
tp2636
F0.006309148264984227
s(g1183
g643
g956
tp2637
F0.0015772870662460567
s(g39
g10
tp2638
F0.025196850393700787
s(g354
g364
g355
g356
tp2639
F0.001579778830963665
s(g897
g423
g895
g896
tp2640
F0.001579778830963665
s(g122
g39
tp2641
F0.009448818897637795
s(g12
g43
g1893
g39
tp2642
F0.001579778830963665
s(g40
g39
g1529
tp2643
F0.0031545741324921135
s(g30
g179
g271
tp2644
F0.0015772870662460567
s(g69
g172
g122
g69
tp2645
F0.001579778830963665
s(g122
g1658
g40
g10
tp2646
F0.001579778830963665
s(g64
g12
g10
g64
tp2647
F0.001579778830963665
s(g43
g12
g43
g41
tp2648
F0.001579778830963665
s(g532
g870
g1005
tp2649
F0.0015772870662460567
s(g152
g517
g515
tp2650
F0.0015772870662460567
s(g40
g39
g39
g40
tp2651
F0.00315955766192733
s(g40
g40
g122
g40
tp2652
F0.00315955766192733
s(g105
g248
g106
g107
tp2653
F0.001579778830963665
s(g172
g39
tp2654
F0.004724409448818898
s(g69
g122
g69
tp2655
F0.0015772870662460567
s(g332
g331
tp2656
F0.004724409448818898
s(g40
g40
g39
g10
tp2657
F0.004739336492890996
s(g493
g1092
g492
tp2658
F0.0015772870662460567
s(g715
g714
tp2659
F0.0015748031496062992
s(g43
g172
g172
g41
tp2660
F0.001579778830963665
s(g529
g1373
g326
g325
tp2661
F0.001579778830963665
s(g15
g595
g596
tp2662
F0.0015772870662460567
s(g1290
g862
g863
g861
tp2663
F0.004739336492890996
s(g69
g39
g273
tp2664
F0.0015772870662460567
s(g32
g103
g102
g33
tp2665
F0.001579778830963665
s(g69
g69
g39
g69
tp2666
F0.00315955766192733
s(g532
g470
g870
g1005
tp2667
F0.001579778830963665
s(g16
g595
g596
g15
tp2668
F0.001579778830963665
s(g69
g69
g40
tp2669
F0.0031545741324921135
s(g39
g64
tp2670
F0.0031496062992125984
s(g39
g122
g43
g41
tp2671
F0.001579778830963665
s(g266
g120
g236
g312
tp2672
F0.001579778830963665
s(g12
g172
g10
tp2673
F0.0015772870662460567
s(g487
g418
g419
g417
tp2674
F0.00315955766192733
s(g290
g618
g617
tp2675
F0.0015772870662460567
s(g43
g69
g12
g39
tp2676
F0.001579778830963665
s(g69
g69
S'10'
p2677
g69
tp2678
F0.001579778830963665
s(g39
g39
g41
g69
tp2679
F0.00315955766192733
s(g830
g832
tp2680
F0.0015748031496062992
s(g138
g137
tp2681
F0.004724409448818898
s(g1165
g979
g978
tp2682
F0.0015772870662460567
s(g43
g10
tp2683
F0.009448818897637795
s(g12
g39
g172
g69
tp2684
F0.001579778830963665
s(g784
g1278
g1277
g1441
tp2685
F0.00315955766192733
s(g25
g546
g26
g27
tp2686
F0.001579778830963665
s(g41
g43
g69
tp2687
F0.0015772870662460567
s(g3
g6
g8
tp2688
F0.0015772870662460567
s(g1477
g325
g529
tp2689
F0.0015772870662460567
stp2690
Rp2691
.