(lp0
(lp1
S'7'
p2
aS'3'
p3
aS'11'
p4
aS'0'
p5
ag5
ag5
ag5
ag5
aS'9'
p6
ag6
ag6
ag6
ag6
ag5
aS'6'
p7
ag6
aS'8'
p8
ag7
ag8
ag8
aS'4'
p9
ag5
ag8
ag6
ag5
ag6
ag6
aS'10'
p10
aS'10'
p11
ag6
ag3
aS'5'
p12
ag12
ag9
aS'10'
p13
ag12
ag3
aS'2'
p14
ag5
ag6
ag12
ag5
ag2
ag5
ag6
ag6
ag6
ag6
aS'10'
p15
ag6
ag2
ag12
ag5
ag12
ag12
ag9
ag14
ag14
ag9
ag2
ag3
ag2
ag12
ag8
ag8
ag2
aS'10'
p16
ag8
ag7
ag12
ag3
aS'1'
p17
ag17
ag5
aS'10'
p18
ag8
ag5
ag12
ag7
ag9
ag5
ag5
ag5
ag3
ag5
ag2
ag8
ag5
ag8
ag3
ag7
ag9
ag2
aS'11'
p19
ag5
ag5
ag2
aS'11'
p20
ag5
ag3
ag5
ag2
ag8
ag5
ag8
ag3
ag7
ag9
ag2
aS'11'
p21
ag5
ag5
ag2
aS'11'
p22
ag5
ag5
ag14
ag7
ag6
ag8
ag3
aS'10'
p23
ag7
ag5
ag5
ag5
ag8
ag6
ag2
ag5
ag5
ag5
ag8
ag6
ag5
ag5
ag5
ag5
ag3
ag5
ag2
ag6
ag3
ag5
ag2
ag8
ag9
ag5
ag7
ag2
ag3
ag14
ag3
ag12
ag3
ag14
ag5
aS'11'
p24
ag12
ag3
ag17
ag5
aS'10'
p25
ag8
ag3
ag7
ag9
ag2
aS'11'
p26
ag5
ag9
ag5
aS'11'
p27
ag6
ag2
ag2
ag12
ag2
ag5
ag2
ag5
ag5
ag5
ag5
ag6
ag5
ag12
ag9
ag6
ag9
ag5
ag6
ag5
ag2
aS'10'
p28
ag8
ag5
ag5
ag5
ag5
ag5
ag5
ag5
ag5
ag5
ag8
ag8
aS'10'
p29
ag5
ag5
ag5
ag5
ag5
ag5
ag5
ag5
ag5
aS'10'
p30
aS'10'
p31
ag8
aS'10'
p32
ag6
ag8
ag6
ag2
ag2
ag12
ag5
ag5
ag3
ag5
ag2
ag8
ag3
ag8
ag5
ag3
ag8
ag5
ag3
ag8
ag5
ag3
ag8
ag7
ag9
ag5
ag7
ag2
ag9
ag5
ag2
ag9
ag5
ag2
ag9
ag5
ag2
aS'11'
p33
ag9
aS'10'
p34
aS'10'
p35
aS'11'
p36
ag6
ag2
ag5
ag5
aS'10'
p37
ag5
ag5
ag5
ag5
ag2
ag3
aS'11'
p38
ag5
ag5
ag5
ag5
ag5
ag6
ag6
ag6
ag6
ag6
ag5
ag7
ag6
ag8
ag7
ag8
ag8
ag9
ag5
ag8
ag6
ag5
ag6
ag6
aS'10'
p39
aS'10'
p40
ag8
ag6
ag3
ag12
ag12
ag9
aS'10'
p41
ag12
ag3
ag14
ag5
ag14
ag6
ag12
ag5
ag5
ag5
ag3
ag3
ag2
ag8
ag3
ag12
ag2
aS'10'
p42
ag8
ag8
ag8
aS'10'
p43
ag6
ag6
ag6
ag9
ag5
ag5
ag9
ag9
ag8
ag6
ag9
ag8
aS'11'
p44
ag6
ag6
ag6
aS'10'
p45
ag6
ag6
ag6
ag3
ag5
ag5
ag5
ag5
ag5
ag12
ag9
ag14
ag9
ag2
ag5
aS'10'
p46
ag3
ag9
ag5
ag5
ag5
ag5
ag5
ag7
ag9
ag3
ag9
ag2
ag5
aS'11'
p47
ag14
ag3
ag5
ag5
ag5
ag5
ag5
ag12
ag9
ag14
ag9
ag2
ag5
aS'10'
p48
ag12
ag3
ag5
ag2
ag12
ag3
ag5
ag6
ag5
ag6
ag5
ag12
ag9
ag5
ag5
ag5
ag5
ag5
ag5
ag5
ag5
ag9
ag5
ag8
ag6
ag5
ag8
ag3
ag2
ag3
ag2
aS'11'
p49
ag5
ag5
ag2
aS'11'
p50
ag5
ag3
ag5
ag2
ag8
ag5
ag8
ag3
ag7
ag9
ag2
aS'11'
p51
ag5
ag5
ag2
aS'11'
p52
ag5
ag5
ag14
ag7
ag6
ag6
ag9
ag5
ag6
ag5
ag5
ag9
ag5
ag8
ag6
ag5
ag5
ag9
ag5
ag2
ag8
ag5
ag5
ag3
ag5
ag2
ag6
ag9
ag3
ag2
ag8
ag12
ag3
ag7
ag2
ag3
ag14
ag12
ag3
ag7
ag12
ag8
ag7
ag8
ag7
ag9
ag3
ag12
ag9
ag2
aS'11'
p53
ag3
ag2
aS'11'
p54
ag5
ag12
ag3
ag14
ag5
ag8
ag2
ag5
ag2
ag5
ag5
ag5
ag5
ag6
ag5
ag12
ag9
ag6
ag9
ag5
ag6
ag5
ag2
aS'10'
p55
ag8
ag5
ag5
ag5
ag5
ag5
ag5
ag5
ag5
ag5
ag8
ag8
aS'10'
p56
ag5
ag5
ag5
ag5
ag5
ag5
ag5
ag5
ag5
aS'10'
p57
aS'10'
p58
ag8
aS'10'
p59
ag6
ag8
ag6
ag2
ag2
ag7
ag5
ag5
ag9
ag5
ag8
ag6
ag9
ag6
ag5
ag9
ag6
ag5
ag9
ag6
ag5
ag9
ag6
ag2
ag3
ag5
ag7
ag2
ag3
ag5
ag2
ag3
ag5
ag2
ag3
ag5
ag2
ag3
ag5
ag2
ag5
ag3
ag14
ag5
aS'10'
p60
ag6
ag12
ag2
ag9
ag2
ag3
ag9
ag5
ag2
ag3
ag9
ag5
ag5
ag5
ag5
ag5
ag5
ag8
ag9
ag12
ag5
ag5
ag8
ag9
ag12
ag5
ag5
ag5
ag5
ag5
ag5
ag5
ag6
ag6
ag6
ag6
ag6
ag6
ag6
ag8
ag2
ag12
ag2
ag5
aa.